

Microchip MPLAB XC8 Assembler V2.10 build 88905656 
                                                                                               Mon Oct 05 16:00:33 2020

Microchip MPLAB XC8 C Compiler v2.10 (Free license) build 20190730164152 Og1 
     1                           	processor	18F46K80
     2                           	fnconf	rparam,??,?,0
     3                           	opt	pw 120
     4                           	opt	flic
     5                           	psect	mediumconst,global,reloc=2,class=MEDIUMCONST,delta=1,noexec
     6                           	psect	nvCOMRAM,global,class=COMRAM,space=1,delta=1,noexec
     7                           	psect	cinit,global,reloc=2,class=CODE,delta=1
     8                           	psect	bssCOMRAM,global,class=COMRAM,space=1,delta=1,noexec
     9                           	psect	cstackCOMRAM,global,class=COMRAM,space=1,delta=1,noexec
    10                           	psect	text0,global,reloc=2,class=CODE,delta=1
    11                           	psect	text1,global,reloc=2,class=CODE,delta=1
    12                           	psect	text2,global,reloc=2,class=CODE,delta=1
    13                           	psect	text3,global,reloc=2,class=CODE,delta=1
    14                           	psect	text4,global,reloc=2,class=CODE,delta=1
    15                           	psect	text5,global,reloc=2,class=CODE,delta=1
    16                           	psect	text6,global,reloc=2,class=CODE,delta=1
    17                           	psect	text7,global,reloc=2,class=CODE,delta=1
    18                           	psect	text8,global,reloc=2,class=CODE,delta=1
    19                           	psect	text9,global,reloc=2,class=CODE,delta=1
    20                           	psect	text10,global,reloc=2,class=CODE,delta=1
    21                           	psect	text11,global,reloc=2,class=CODE,delta=1
    22                           	psect	text12,global,reloc=2,class=CODE,delta=1
    23                           	psect	text13,global,reloc=2,class=CODE,delta=1
    24                           	psect	text14,global,reloc=2,class=CODE,delta=1
    25                           	psect	text15,global,reloc=2,class=CODE,delta=1
    26                           	psect	text16,global,reloc=2,class=CODE,delta=1
    27                           	psect	text17,global,reloc=2,class=CODE,delta=1
    28                           	psect	text18,global,reloc=2,class=CODE,delta=1
    29                           	psect	text19,global,reloc=2,class=CODE,delta=1
    30                           	psect	text20,global,reloc=2,class=CODE,delta=1
    31                           	psect	intcode,global,reloc=2,class=CODE,delta=1
    32                           	psect	text22,global,reloc=2,class=CODE,delta=1
    33                           	psect	text23,global,reloc=2,class=CODE,delta=1
    34                           	psect	text24,global,reloc=2,class=CODE,delta=1
    35                           	psect	text25,global,reloc=2,class=CODE,delta=1
    36                           	psect	intsave_regs,global,class=BIGRAM,space=1,delta=1,noexec
    37                           	psect	text26,global,reloc=2,class=CODE,delta=1
    38                           	psect	rparam,global,class=COMRAM,space=1,delta=1,noexec
    39                           	psect	temp,global,ovrld,common,class=COMRAM,space=1,delta=1
    40  0000                     
    41                           ; Version 2.10
    42                           ; Generated 31/07/2019 GMT
    43                           ; 
    44                           ; Copyright © 2019, Microchip Technology Inc. and its subsidiaries ("Microchip")
    45                           ; All rights reserved.
    46                           ; 
    47                           ; This software is developed by Microchip Technology Inc. and its subsidiaries ("Microch
      +                          ip").
    48                           ; 
    49                           ; Redistribution and use in source and binary forms, with or without modification, are
    50                           ; permitted provided that the following conditions are met:
    51                           ; 
    52                           ;     1. Redistributions of source code must retain the above copyright notice, this lis
      +                          t of
    53                           ;        conditions and the following disclaimer.
    54                           ; 
    55                           ;     2. Redistributions in binary form must reproduce the above copyright notice, this 
      +                          list
    56                           ;        of conditions and the following disclaimer in the documentation and/or other
    57                           ;        materials provided with the distribution.
    58                           ; 
    59                           ;     3. Microchip's name may not be used to endorse or promote products derived from th
      +                          is
    60                           ;        software without specific prior written permission.
    61                           ; 
    62                           ; THIS SOFTWARE IS PROVIDED BY MICROCHIP "AS IS" AND ANY EXPRESS OR IMPLIED WARRANTIES,
    63                           ; INCLUDING, BUT NOT LIMITED TO, THE IMPLIED WARRANTIES OF MERCHANTABILITY AND FITNESS F
      +                          OR
    64                           ; PURPOSE ARE DISCLAIMED.  IN NO EVENT SHALL MICROCHIP BE LIABLE FOR ANY DIRECT, INDIREC
      +                          T,
    65                           ; INCIDENTAL, SPECIAL, EXEMPLARY, OR CONSEQUENTIAL DAMAGES (INCLUDING BUT NOT LIMITED TO
    66                           ; PROCUREMENT OF SUBSTITUTE GOODS OR SERVICES; LOSS OF USE, DATA OR PROFITS; OR BUSINESS
    67                           ; INTERRUPTION) HOWSOEVER CAUSED AND ON ANY THEORY OF LIABILITY, WHETHER IN CONTRACT, ST
      +                          RICT
    68                           ; LIABILITY, OR TORT (INCLUDING NEGLIGENCE OR OTHERWISE) ARISING IN ANY WAY OUT OF THE U
      +                          SE OF
    69                           ; THIS SOFTWARE, EVEN IF ADVISED OF THE POSSIBILITY OF SUCH DAMAGE.
    70                           ; 
    71                           ; 
    72                           ; Code-generator required, PIC18F46K80 Definitions
    73                           ; 
    74                           ; SFR Addresses
    75  0000                     
    76                           	psect	mediumconst
    77  00F222                     __pmediumconst:
    78                           	opt callstack 0
    79  00F222  00                 	db	0
    80  00F223                     _font:
    81                           	opt callstack 0
    82  00F223  0004               	dw	4
    83  00F225  0000               	dw	0
    84  00F227  0000               	dw	0
    85  00F229  0000               	dw	0
    86  00F22B  0000               	dw	0
    87  00F22D  0000               	dw	0
    88  00F22F  0000               	dw	0
    89  00F231  0000               	dw	0
    90  00F233  0000               	dw	0
    91  00F235  0003               	dw	3
    92  00F237  0000               	dw	0
    93  00F239  0000               	dw	0
    94  00F23B  00FE               	dw	254
    95  00F23D  001B               	dw	27
    96  00F23F  0000               	dw	0
    97  00F241  0000               	dw	0
    98  00F243  0005               	dw	5
    99  00F245  001E               	dw	30
   100  00F247  0000               	dw	0
   101  00F249  0000               	dw	0
   102  00F24B  0000               	dw	0
   103  00F24D  0000               	dw	0
   104  00F24F  0000               	dw	0
   105  00F251  001E               	dw	30
   106  00F253  0000               	dw	0
   107  00F255  0000               	dw	0
   108  00F257  0000               	dw	0
   109  00F259  000B               	dw	11
   110  00F25B  0000               	dw	0
   111  00F25D  0000               	dw	0
   112  00F25F  0010               	dw	16
   113  00F261  0001               	dw	1
   114  00F263  0010               	dw	16
   115  00F265  001D               	dw	29
   116  00F267  00F0               	dw	240
   117  00F269  0003               	dw	3
   118  00F26B  001E               	dw	30
   119  00F26D  0001               	dw	1
   120  00F26F  0010               	dw	16
   121  00F271  0001               	dw	1
   122  00F273  0010               	dw	16
   123  00F275  001D               	dw	29
   124  00F277  00F0               	dw	240
   125  00F279  0003               	dw	3
   126  00F27B  001E               	dw	30
   127  00F27D  0001               	dw	1
   128  00F27F  0010               	dw	16
   129  00F281  0001               	dw	1
   130  00F283  0000               	dw	0
   131  00F285  0000               	dw	0
   132  00F287  0009               	dw	9
   133  00F289  0000               	dw	0
   134  00F28B  0004               	dw	4
   135  00F28D  001C               	dw	28
   136  00F28F  0008               	dw	8
   137  00F291  0022               	dw	34
   138  00F293  0010               	dw	16
   139  00F295  0042               	dw	66
   140  00F297  0010               	dw	16
   141  00F299  00FF               	dw	255
   142  00F29B  007F               	dw	127
   143  00F29D  0042               	dw	66
   144  00F29F  0010               	dw	16
   145  00F2A1  0084               	dw	132
   146  00F2A3  0010               	dw	16
   147  00F2A5  0000               	dw	0
   148  00F2A7  000F               	dw	15
   149  00F2A9  0000               	dw	0
   150  00F2AB  0000               	dw	0
   151  00F2AD  000C               	dw	12
   152  00F2AF  001C               	dw	28
   153  00F2B1  0000               	dw	0
   154  00F2B3  0022               	dw	34
   155  00F2B5  0010               	dw	16
   156  00F2B7  0022               	dw	34
   157  00F2B9  0008               	dw	8
   158  00F2BB  0022               	dw	34
   159  00F2BD  0006               	dw	6
   160  00F2BF  001C               	dw	28
   161  00F2C1  0001               	dw	1
   162  00F2C3  00C0               	dw	192
   163  00F2C5  0000               	dw	0
   164  00F2C7  0020               	dw	32
   165  00F2C9  000E               	dw	14
   166  00F2CB  0018               	dw	24
   167  00F2CD  0011               	dw	17
   168  00F2CF  0004               	dw	4
   169  00F2D1  0011               	dw	17
   170  00F2D3  0002               	dw	2
   171  00F2D5  0011               	dw	17
   172  00F2D7  0000               	dw	0
   173  00F2D9  000E               	dw	14
   174  00F2DB  0000               	dw	0
   175  00F2DD  0000               	dw	0
   176  00F2DF  000B               	dw	11
   177  00F2E1  0000               	dw	0
   178  00F2E3  0000               	dw	0
   179  00F2E5  0000               	dw	0
   180  00F2E7  000E               	dw	14
   181  00F2E9  001C               	dw	28
   182  00F2EB  0011               	dw	17
   183  00F2ED  00A2               	dw	162
   184  00F2EF  0010               	dw	16
   185  00F2F1  00C2               	dw	194
   186  00F2F3  0010               	dw	16
   187  00F2F5  0022               	dw	34
   188  00F2F7  0011               	dw	17
   189  00F2F9  001C               	dw	28
   190  00F2FB  000A               	dw	10
   191  00F2FD  0000               	dw	0
   192  00F2FF  000C               	dw	12
   193  00F301  0000               	dw	0
   194  00F303  000C               	dw	12
   195  00F305  0000               	dw	0
   196  00F307  0012               	dw	18
   197  00F309  0000               	dw	0
   198  00F30B  0000               	dw	0
   199  00F30D  0003               	dw	3
   200  00F30F  0000               	dw	0
   201  00F311  0000               	dw	0
   202  00F313  001E               	dw	30
   203  00F315  0000               	dw	0
   204  00F317  0000               	dw	0
   205  00F319  0000               	dw	0
   206  00F31B  0006               	dw	6
   207  00F31D  0000               	dw	0
   208  00F31F  0000               	dw	0
   209  00F321  0000               	dw	0
   210  00F323  0000               	dw	0
   211  00F325  00E0               	dw	224
   212  00F327  001F               	dw	31
   213  00F329  001C               	dw	28
   214  00F32B  0060               	dw	96
   215  00F32D  0002               	dw	2
   216  00F32F  0080               	dw	128
   217  00F331  0000               	dw	0
   218  00F333  0000               	dw	0
   219  00F335  0004               	dw	4
   220  00F337  0000               	dw	0
   221  00F339  0000               	dw	0
   222  00F33B  0006               	dw	6
   223  00F33D  00C0               	dw	192
   224  00F33F  00F8               	dw	248
   225  00F341  003F               	dw	63
   226  00F343  0000               	dw	0
   227  00F345  0000               	dw	0
   228  00F347  0006               	dw	6
   229  00F349  0024               	dw	36
   230  00F34B  0000               	dw	0
   231  00F34D  0018               	dw	24
   232  00F34F  0000               	dw	0
   233  00F351  007E               	dw	126
   234  00F353  0000               	dw	0
   235  00F355  0018               	dw	24
   236  00F357  0000               	dw	0
   237  00F359  0024               	dw	36
   238  00F35B  0000               	dw	0
   239  00F35D  0000               	dw	0
   240  00F35F  0000               	dw	0
   241  00F361  0009               	dw	9
   242  00F363  0000               	dw	0
   243  00F365  0000               	dw	0
   244  00F367  0080               	dw	128
   245  00F369  0000               	dw	0
   246  00F36B  0080               	dw	128
   247  00F36D  0000               	dw	0
   248  00F36F  0080               	dw	128
   249  00F371  0000               	dw	0
   250  00F373  00F0               	dw	240
   251  00F375  0007               	dw	7
   252  00F377  0080               	dw	128
   253  00F379  0000               	dw	0
   254  00F37B  0080               	dw	128
   255  00F37D  0000               	dw	0
   256  00F37F  0080               	dw	128
   257  00F381  0000               	dw	0
   258  00F383  0000               	dw	0
   259  00F385  0000               	dw	0
   260  00F387  0004               	dw	4
   261  00F389  0000               	dw	0
   262  00F38B  0000               	dw	0
   263  00F38D  0000               	dw	0
   264  00F38F  0060               	dw	96
   265  00F391  0000               	dw	0
   266  00F393  0018               	dw	24
   267  00F395  0000               	dw	0
   268  00F397  0000               	dw	0
   269  00F399  0005               	dw	5
   270  00F39B  0000               	dw	0
   271  00F39D  0001               	dw	1
   272  00F39F  0000               	dw	0
   273  00F3A1  0001               	dw	1
   274  00F3A3  0000               	dw	0
   275  00F3A5  0001               	dw	1
   276  00F3A7  0000               	dw	0
   277  00F3A9  0001               	dw	1
   278  00F3AB  0000               	dw	0
   279  00F3AD  0000               	dw	0
   280  00F3AF  0004               	dw	4
   281  00F3B1  0000               	dw	0
   282  00F3B3  0000               	dw	0
   283  00F3B5  0000               	dw	0
   284  00F3B7  0018               	dw	24
   285  00F3B9  0000               	dw	0
   286  00F3BB  0018               	dw	24
   287  00F3BD  0000               	dw	0
   288  00F3BF  0000               	dw	0
   289  00F3C1  0008               	dw	8
   290  00F3C3  0000               	dw	0
   291  00F3C5  0000               	dw	0
   292  00F3C7  0000               	dw	0
   293  00F3C9  0040               	dw	64
   294  00F3CB  0000               	dw	0
   295  00F3CD  0038               	dw	56
   296  00F3CF  0000               	dw	0
   297  00F3D1  0007               	dw	7
   298  00F3D3  00E0               	dw	224
   299  00F3D5  0000               	dw	0
   300  00F3D7  001C               	dw	28
   301  00F3D9  0000               	dw	0
   302  00F3DB  0002               	dw	2
   303  00F3DD  0000               	dw	0
   304  00F3DF  0000               	dw	0
   305  00F3E1  0000               	dw	0
   306  00F3E3  0009               	dw	9
   307  00F3E5  00F8               	dw	248
   308  00F3E7  0007               	dw	7
   309  00F3E9  0004               	dw	4
   310  00F3EB  0008               	dw	8
   311  00F3ED  0002               	dw	2
   312  00F3EF  0010               	dw	16
   313  00F3F1  0002               	dw	2
   314  00F3F3  0010               	dw	16
   315  00F3F5  0002               	dw	2
   316  00F3F7  0010               	dw	16
   317  00F3F9  0002               	dw	2
   318  00F3FB  0010               	dw	16
   319  00F3FD  0004               	dw	4
   320  00F3FF  0008               	dw	8
   321  00F401  00F8               	dw	248
   322  00F403  0007               	dw	7
   323  00F405  0000               	dw	0
   324  00F407  0000               	dw	0
   325  00F409  0006               	dw	6
   326  00F40B  0000               	dw	0
   327  00F40D  0000               	dw	0
   328  00F40F  0000               	dw	0
   329  00F411  0000               	dw	0
   330  00F413  0002               	dw	2
   331  00F415  0000               	dw	0
   332  00F417  0002               	dw	2
   333  00F419  0000               	dw	0
   334  00F41B  00FE               	dw	254
   335  00F41D  001F               	dw	31
   336  00F41F  0000               	dw	0
   337  00F421  0000               	dw	0
   338  00F423  0009               	dw	9
   339  00F425  0018               	dw	24
   340  00F427  0010               	dw	16
   341  00F429  0004               	dw	4
   342  00F42B  0018               	dw	24
   343  00F42D  0002               	dw	2
   344  00F42F  0014               	dw	20
   345  00F431  0002               	dw	2
   346  00F433  0012               	dw	18
   347  00F435  0002               	dw	2
   348  00F437  0011               	dw	17
   349  00F439  0082               	dw	130
   350  00F43B  0010               	dw	16
   351  00F43D  0044               	dw	68
   352  00F43F  0010               	dw	16
   353  00F441  0038               	dw	56
   354  00F443  0010               	dw	16
   355  00F445  0000               	dw	0
   356  00F447  0000               	dw	0
   357  00F449  0009               	dw	9
   358  00F44B  0008               	dw	8
   359  00F44D  000C               	dw	12
   360  00F44F  0004               	dw	4
   361  00F451  0010               	dw	16
   362  00F453  0002               	dw	2
   363  00F455  0010               	dw	16
   364  00F457  0042               	dw	66
   365  00F459  0010               	dw	16
   366  00F45B  0042               	dw	66
   367  00F45D  0010               	dw	16
   368  00F45F  0044               	dw	68
   369  00F461  0010               	dw	16
   370  00F463  00B8               	dw	184
   371  00F465  0008               	dw	8
   372  00F467  0000               	dw	0
   373  00F469  0007               	dw	7
   374  00F46B  0000               	dw	0
   375  00F46D  0000               	dw	0
   376  00F46F  0009               	dw	9
   377  00F471  0000               	dw	0
   378  00F473  0002               	dw	2
   379  00F475  0000               	dw	0
   380  00F477  0003               	dw	3
   381  00F479  0080               	dw	128
   382  00F47B  0002               	dw	2
   383  00F47D  0060               	dw	96
   384  00F47F  0002               	dw	2
   385  00F481  0010               	dw	16
   386  00F483  0002               	dw	2
   387  00F485  0008               	dw	8
   388  00F487  0002               	dw	2
   389  00F489  00FE               	dw	254
   390  00F48B  001F               	dw	31
   391  00F48D  0000               	dw	0
   392  00F48F  0002               	dw	2
   393  00F491  0000               	dw	0
   394  00F493  0000               	dw	0
   395  00F495  0009               	dw	9
   396  00F497  0000               	dw	0
   397  00F499  0004               	dw	4
   398  00F49B  0070               	dw	112
   399  00F49D  0008               	dw	8
   400  00F49F  002E               	dw	46
   401  00F4A1  0010               	dw	16
   402  00F4A3  0022               	dw	34
   403  00F4A5  0010               	dw	16
   404  00F4A7  0022               	dw	34
   405  00F4A9  0010               	dw	16
   406  00F4AB  0022               	dw	34
   407  00F4AD  0010               	dw	16
   408  00F4AF  0042               	dw	66
   409  00F4B1  0008               	dw	8
   410  00F4B3  0082               	dw	130
   411  00F4B5  0007               	dw	7
   412  00F4B7  0000               	dw	0
   413  00F4B9  0000               	dw	0
   414  00F4BB  0009               	dw	9
   415  00F4BD  0000               	dw	0
   416  00F4BF  0000               	dw	0
   417  00F4C1  0000               	dw	0
   418  00F4C3  0007               	dw	7
   419  00F4C5  00C0               	dw	192
   420  00F4C7  0008               	dw	8
   421  00F4C9  0060               	dw	96
   422  00F4CB  0010               	dw	16
   423  00F4CD  0058               	dw	88
   424  00F4CF  0010               	dw	16
   425  00F4D1  0044               	dw	68
   426  00F4D3  0010               	dw	16
   427  00F4D5  0082               	dw	130
   428  00F4D7  0008               	dw	8
   429  00F4D9  0000               	dw	0
   430  00F4DB  0007               	dw	7
   431  00F4DD  0000               	dw	0
   432  00F4DF  0000               	dw	0
   433  00F4E1  0009               	dw	9
   434  00F4E3  0000               	dw	0
   435  00F4E5  0000               	dw	0
   436  00F4E7  0002               	dw	2
   437  00F4E9  0010               	dw	16
   438  00F4EB  0002               	dw	2
   439  00F4ED  000C               	dw	12
   440  00F4EF  0002               	dw	2
   441  00F4F1  0003               	dw	3
   442  00F4F3  00C2               	dw	194
   443  00F4F5  0000               	dw	0
   444  00F4F7  0032               	dw	50
   445  00F4F9  0000               	dw	0
   446  00F4FB  000E               	dw	14
   447  00F4FD  0000               	dw	0
   448  00F4FF  0002               	dw	2
   449  00F501  0000               	dw	0
   450  00F503  0000               	dw	0
   451  00F505  0000               	dw	0
   452  00F507  0009               	dw	9
   453  00F509  0000               	dw	0
   454  00F50B  0007               	dw	7
   455  00F50D  0098               	dw	152
   456  00F50F  0008               	dw	8
   457  00F511  0064               	dw	100
   458  00F513  0010               	dw	16
   459  00F515  0042               	dw	66
   460  00F517  0010               	dw	16
   461  00F519  0042               	dw	66
   462  00F51B  0010               	dw	16
   463  00F51D  0064               	dw	100
   464  00F51F  0010               	dw	16
   465  00F521  0098               	dw	152
   466  00F523  0008               	dw	8
   467  00F525  0000               	dw	0
   468  00F527  0007               	dw	7
   469  00F529  0000               	dw	0
   470  00F52B  0000               	dw	0
   471  00F52D  0009               	dw	9
   472  00F52F  0000               	dw	0
   473  00F531  0000               	dw	0
   474  00F533  0038               	dw	56
   475  00F535  0000               	dw	0
   476  00F537  0044               	dw	68
   477  00F539  0010               	dw	16
   478  00F53B  0082               	dw	130
   479  00F53D  0008               	dw	8
   480  00F53F  0082               	dw	130
   481  00F541  0004               	dw	4
   482  00F543  0082               	dw	130
   483  00F545  0003               	dw	3
   484  00F547  0084               	dw	132
   485  00F549  0000               	dw	0
   486  00F54B  0078               	dw	120
   487  00F54D  0000               	dw	0
   488  00F54F  0000               	dw	0
   489  00F551  0000               	dw	0
   490  00F553  0004               	dw	4
   491  00F555  0000               	dw	0
   492  00F557  0000               	dw	0
   493  00F559  0030               	dw	48
   494  00F55B  0018               	dw	24
   495  00F55D  0030               	dw	48
   496  00F55F  0018               	dw	24
   497  00F561  0000               	dw	0
   498  00F563  0000               	dw	0
   499  00F565  0004               	dw	4
   500  00F567  0000               	dw	0
   501  00F569  0000               	dw	0
   502  00F56B  0030               	dw	48
   503  00F56D  0060               	dw	96
   504  00F56F  0030               	dw	48
   505  00F571  0018               	dw	24
   506  00F573  0000               	dw	0
   507  00F575  0000               	dw	0
   508  00F577  000A               	dw	10
   509  00F579  0000               	dw	0
   510  00F57B  0000               	dw	0
   511  00F57D  0080               	dw	128
   512  00F57F  0000               	dw	0
   513  00F581  0080               	dw	128
   514  00F583  0000               	dw	0
   515  00F585  0040               	dw	64
   516  00F587  0001               	dw	1
   517  00F589  0020               	dw	32
   518  00F58B  0002               	dw	2
   519  00F58D  0020               	dw	32
   520  00F58F  0002               	dw	2
   521  00F591  0010               	dw	16
   522  00F593  0004               	dw	4
   523  00F595  0010               	dw	16
   524  00F597  0004               	dw	4
   525  00F599  0008               	dw	8
   526  00F59B  0008               	dw	8
   527  00F59D  0000               	dw	0
   528  00F59F  0000               	dw	0
   529  00F5A1  000A               	dw	10
   530  00F5A3  0000               	dw	0
   531  00F5A5  0000               	dw	0
   532  00F5A7  0020               	dw	32
   533  00F5A9  0001               	dw	1
   534  00F5AB  0020               	dw	32
   535  00F5AD  0001               	dw	1
   536  00F5AF  0020               	dw	32
   537  00F5B1  0001               	dw	1
   538  00F5B3  0020               	dw	32
   539  00F5B5  0001               	dw	1
   540  00F5B7  0020               	dw	32
   541  00F5B9  0001               	dw	1
   542  00F5BB  0020               	dw	32
   543  00F5BD  0001               	dw	1
   544  00F5BF  0020               	dw	32
   545  00F5C1  0001               	dw	1
   546  00F5C3  0020               	dw	32
   547  00F5C5  0001               	dw	1
   548  00F5C7  0000               	dw	0
   549  00F5C9  0000               	dw	0
   550  00F5CB  000A               	dw	10
   551  00F5CD  0000               	dw	0
   552  00F5CF  0000               	dw	0
   553  00F5D1  0008               	dw	8
   554  00F5D3  0008               	dw	8
   555  00F5D5  0010               	dw	16
   556  00F5D7  0004               	dw	4
   557  00F5D9  0010               	dw	16
   558  00F5DB  0004               	dw	4
   559  00F5DD  0020               	dw	32
   560  00F5DF  0002               	dw	2
   561  00F5E1  0020               	dw	32
   562  00F5E3  0002               	dw	2
   563  00F5E5  0040               	dw	64
   564  00F5E7  0001               	dw	1
   565  00F5E9  0080               	dw	128
   566  00F5EB  0000               	dw	0
   567  00F5ED  0080               	dw	128
   568  00F5EF  0000               	dw	0
   569  00F5F1  0000               	dw	0
   570  00F5F3  0000               	dw	0
   571  00F5F5  0008               	dw	8
   572  00F5F7  0000               	dw	0
   573  00F5F9  0000               	dw	0
   574  00F5FB  000C               	dw	12
   575  00F5FD  0000               	dw	0
   576  00F5FF  0082               	dw	130
   577  00F601  0001               	dw	1
   578  00F603  0042               	dw	66
   579  00F605  0002               	dw	2
   580  00F607  0022               	dw	34
   581  00F609  001A               	dw	26
   582  00F60B  0022               	dw	34
   583  00F60D  001A               	dw	26
   584  00F60F  009C               	dw	156
   585  00F611  0001               	dw	1
   586  00F613  0000               	dw	0
   587  00F615  0000               	dw	0
   588  00F617  000E               	dw	14
   589  00F619  0000               	dw	0
   590  00F61B  0000               	dw	0
   591  00F61D  00F0               	dw	240
   592  00F61F  0003               	dw	3
   593  00F621  0008               	dw	8
   594  00F623  0004               	dw	4
   595  00F625  0004               	dw	4
   596  00F627  0008               	dw	8
   597  00F629  00C2               	dw	194
   598  00F62B  0011               	dw	17
   599  00F62D  0022               	dw	34
   600  00F62F  0012               	dw	18
   601  00F631  0012               	dw	18
   602  00F633  0012               	dw	18
   603  00F635  0012               	dw	18
   604  00F637  0012               	dw	18
   605  00F639  00E2               	dw	226
   606  00F63B  0011               	dw	17
   607  00F63D  0012               	dw	18
   608  00F63F  0012               	dw	18
   609  00F641  0004               	dw	4
   610  00F643  0012               	dw	18
   611  00F645  0008               	dw	8
   612  00F647  0009               	dw	9
   613  00F649  00F0               	dw	240
   614  00F64B  0004               	dw	4
   615  00F64D  0000               	dw	0
   616  00F64F  0000               	dw	0
   617  00F651  000D               	dw	13
   618  00F653  0000               	dw	0
   619  00F655  0000               	dw	0
   620  00F657  0000               	dw	0
   621  00F659  0010               	dw	16
   622  00F65B  0000               	dw	0
   623  00F65D  000E               	dw	14
   624  00F65F  0080               	dw	128
   625  00F661  0001               	dw	1
   626  00F663  0060               	dw	96
   627  00F665  0001               	dw	1
   628  00F667  001C               	dw	28
   629  00F669  0001               	dw	1
   630  00F66B  0002               	dw	2
   631  00F66D  0001               	dw	1
   632  00F66F  001C               	dw	28
   633  00F671  0001               	dw	1
   634  00F673  0060               	dw	96
   635  00F675  0001               	dw	1
   636  00F677  0080               	dw	128
   637  00F679  0001               	dw	1
   638  00F67B  0000               	dw	0
   639  00F67D  000E               	dw	14
   640  00F67F  0000               	dw	0
   641  00F681  0010               	dw	16
   642  00F683  0000               	dw	0
   643  00F685  0000               	dw	0
   644  00F687  0009               	dw	9
   645  00F689  0000               	dw	0
   646  00F68B  0000               	dw	0
   647  00F68D  0000               	dw	0
   648  00F68F  0000               	dw	0
   649  00F691  00FE               	dw	254
   650  00F693  001F               	dw	31
   651  00F695  0042               	dw	66
   652  00F697  0010               	dw	16
   653  00F699  0042               	dw	66
   654  00F69B  0010               	dw	16
   655  00F69D  0064               	dw	100
   656  00F69F  0010               	dw	16
   657  00F6A1  0098               	dw	152
   658  00F6A3  0008               	dw	8
   659  00F6A5  0000               	dw	0
   660  00F6A7  0007               	dw	7
   661  00F6A9  0000               	dw	0
   662  00F6AB  0000               	dw	0
   663  00F6AD  000D               	dw	13
   664  00F6AF  0000               	dw	0
   665  00F6B1  0000               	dw	0
   666  00F6B3  00F0               	dw	240
   667  00F6B5  0003               	dw	3
   668  00F6B7  0008               	dw	8
   669  00F6B9  0004               	dw	4
   670  00F6BB  0004               	dw	4
   671  00F6BD  0008               	dw	8
   672  00F6BF  0002               	dw	2
   673  00F6C1  0010               	dw	16
   674  00F6C3  0002               	dw	2
   675  00F6C5  0010               	dw	16
   676  00F6C7  0002               	dw	2
   677  00F6C9  0010               	dw	16
   678  00F6CB  0002               	dw	2
   679  00F6CD  0010               	dw	16
   680  00F6CF  0002               	dw	2
   681  00F6D1  0010               	dw	16
   682  00F6D3  0004               	dw	4
   683  00F6D5  0008               	dw	8
   684  00F6D7  0004               	dw	4
   685  00F6D9  0008               	dw	8
   686  00F6DB  0008               	dw	8
   687  00F6DD  0004               	dw	4
   688  00F6DF  0000               	dw	0
   689  00F6E1  0000               	dw	0
   690  00F6E3  000C               	dw	12
   691  00F6E5  0000               	dw	0
   692  00F6E7  0000               	dw	0
   693  00F6E9  0000               	dw	0
   694  00F6EB  0000               	dw	0
   695  00F6ED  00FE               	dw	254
   696  00F6EF  001F               	dw	31
   697  00F6F1  0002               	dw	2
   698  00F6F3  0010               	dw	16
   699  00F6F5  0002               	dw	2
   700  00F6F7  0010               	dw	16
   701  00F6F9  0002               	dw	2
   702  00F6FB  0010               	dw	16
   703  00F6FD  0002               	dw	2
   704  00F6FF  0010               	dw	16
   705  00F701  0002               	dw	2
   706  00F703  0010               	dw	16
   707  00F705  0004               	dw	4
   708  00F707  0008               	dw	8
   709  00F709  0008               	dw	8
   710  00F70B  0004               	dw	4
   711  00F70D  00F0               	dw	240
   712  00F70F  0003               	dw	3
   713  00F711  0000               	dw	0
   714  00F713  0000               	dw	0
   715  00F715  0009               	dw	9
   716  00F717  0000               	dw	0
   717  00F719  0000               	dw	0
   718  00F71B  0000               	dw	0
   719  00F71D  0000               	dw	0
   720  00F71F  00FE               	dw	254
   721  00F721  001F               	dw	31
   722  00F723  0042               	dw	66
   723  00F725  0010               	dw	16
   724  00F727  0042               	dw	66
   725  00F729  0010               	dw	16
   726  00F72B  0042               	dw	66
   727  00F72D  0010               	dw	16
   728  00F72F  0042               	dw	66
   729  00F731  0010               	dw	16
   730  00F733  0042               	dw	66
   731  00F735  0010               	dw	16
   732  00F737  0000               	dw	0
   733  00F739  0000               	dw	0
   734  00F73B  0008               	dw	8
   735  00F73D  0000               	dw	0
   736  00F73F  0000               	dw	0
   737  00F741  0000               	dw	0
   738  00F743  0000               	dw	0
   739  00F745  00FE               	dw	254
   740  00F747  001F               	dw	31
   741  00F749  0042               	dw	66
   742  00F74B  0000               	dw	0
   743  00F74D  0042               	dw	66
   744  00F74F  0000               	dw	0
   745  00F751  0042               	dw	66
   746  00F753  0000               	dw	0
   747  00F755  0042               	dw	66
   748  00F757  0000               	dw	0
   749  00F759  0000               	dw	0
   750  00F75B  0000               	dw	0
   751  00F75D  000E               	dw	14
   752  00F75F  0000               	dw	0
   753  00F761  0000               	dw	0
   754  00F763  00F0               	dw	240
   755  00F765  0003               	dw	3
   756  00F767  0008               	dw	8
   757  00F769  0004               	dw	4
   758  00F76B  0004               	dw	4
   759  00F76D  0008               	dw	8
   760  00F76F  0002               	dw	2
   761  00F771  0010               	dw	16
   762  00F773  0002               	dw	2
   763  00F775  0010               	dw	16
   764  00F777  0002               	dw	2
   765  00F779  0010               	dw	16
   766  00F77B  0002               	dw	2
   767  00F77D  0010               	dw	16
   768  00F77F  0082               	dw	130
   769  00F781  0010               	dw	16
   770  00F783  0084               	dw	132
   771  00F785  0010               	dw	16
   772  00F787  0084               	dw	132
   773  00F789  0008               	dw	8
   774  00F78B  0088               	dw	136
   775  00F78D  0004               	dw	4
   776  00F78F  0080               	dw	128
   777  00F791  0003               	dw	3
   778  00F793  0000               	dw	0
   779  00F795  0000               	dw	0
   780  00F797  000A               	dw	10
   781  00F799  0000               	dw	0
   782  00F79B  0000               	dw	0
   783  00F79D  0000               	dw	0
   784  00F79F  0000               	dw	0
   785  00F7A1  00FE               	dw	254
   786  00F7A3  001F               	dw	31
   787  00F7A5  0040               	dw	64
   788  00F7A7  0000               	dw	0
   789  00F7A9  0040               	dw	64
   790  00F7AB  0000               	dw	0
   791  00F7AD  0040               	dw	64
   792  00F7AF  0000               	dw	0
   793  00F7B1  0040               	dw	64
   794  00F7B3  0000               	dw	0
   795  00F7B5  0040               	dw	64
   796  00F7B7  0000               	dw	0
   797  00F7B9  00FE               	dw	254
   798  00F7BB  001F               	dw	31
   799  00F7BD  0000               	dw	0
   800  00F7BF  0000               	dw	0
   801  00F7C1  0004               	dw	4
   802  00F7C3  0000               	dw	0
   803  00F7C5  0000               	dw	0
   804  00F7C7  0000               	dw	0
   805  00F7C9  0000               	dw	0
   806  00F7CB  00FE               	dw	254
   807  00F7CD  001F               	dw	31
   808  00F7CF  0000               	dw	0
   809  00F7D1  0000               	dw	0
   810  00F7D3  0007               	dw	7
   811  00F7D5  0000               	dw	0
   812  00F7D7  0000               	dw	0
   813  00F7D9  0000               	dw	0
   814  00F7DB  0008               	dw	8
   815  00F7DD  0000               	dw	0
   816  00F7DF  0010               	dw	16
   817  00F7E1  0000               	dw	0
   818  00F7E3  0010               	dw	16
   819  00F7E5  0000               	dw	0
   820  00F7E7  0008               	dw	8
   821  00F7E9  00FE               	dw	254
   822  00F7EB  0007               	dw	7
   823  00F7ED  0000               	dw	0
   824  00F7EF  0000               	dw	0
   825  00F7F1  0009               	dw	9
   826  00F7F3  0000               	dw	0
   827  00F7F5  0000               	dw	0
   828  00F7F7  0000               	dw	0
   829  00F7F9  0000               	dw	0
   830  00F7FB  00FE               	dw	254
   831  00F7FD  001F               	dw	31
   832  00F7FF  0060               	dw	96
   833  00F801  0000               	dw	0
   834  00F803  0090               	dw	144
   835  00F805  0001               	dw	1
   836  00F807  0008               	dw	8
   837  00F809  0002               	dw	2
   838  00F80B  0004               	dw	4
   839  00F80D  000C               	dw	12
   840  00F80F  0002               	dw	2
   841  00F811  0010               	dw	16
   842  00F813  0000               	dw	0
   843  00F815  0000               	dw	0
   844  00F817  0008               	dw	8
   845  00F819  0000               	dw	0
   846  00F81B  0000               	dw	0
   847  00F81D  0000               	dw	0
   848  00F81F  0000               	dw	0
   849  00F821  00FE               	dw	254
   850  00F823  001F               	dw	31
   851  00F825  0000               	dw	0
   852  00F827  0010               	dw	16
   853  00F829  0000               	dw	0
   854  00F82B  0010               	dw	16
   855  00F82D  0000               	dw	0
   856  00F82F  0010               	dw	16
   857  00F831  0000               	dw	0
   858  00F833  0010               	dw	16
   859  00F835  0000               	dw	0
   860  00F837  0000               	dw	0
   861  00F839  000F               	dw	15
   862  00F83B  0000               	dw	0
   863  00F83D  0000               	dw	0
   864  00F83F  0000               	dw	0
   865  00F841  001C               	dw	28
   866  00F843  00F8               	dw	248
   867  00F845  0003               	dw	3
   868  00F847  0006               	dw	6
   869  00F849  0000               	dw	0
   870  00F84B  0038               	dw	56
   871  00F84D  0000               	dw	0
   872  00F84F  00C0               	dw	192
   873  00F851  0001               	dw	1
   874  00F853  0000               	dw	0
   875  00F855  000E               	dw	14
   876  00F857  0000               	dw	0
   877  00F859  0010               	dw	16
   878  00F85B  0000               	dw	0
   879  00F85D  000E               	dw	14
   880  00F85F  00C0               	dw	192
   881  00F861  0001               	dw	1
   882  00F863  0038               	dw	56
   883  00F865  0000               	dw	0
   884  00F867  0006               	dw	6
   885  00F869  0000               	dw	0
   886  00F86B  00F8               	dw	248
   887  00F86D  0003               	dw	3
   888  00F86F  0000               	dw	0
   889  00F871  001C               	dw	28
   890  00F873  0000               	dw	0
   891  00F875  0000               	dw	0
   892  00F877  000B               	dw	11
   893  00F879  0000               	dw	0
   894  00F87B  0000               	dw	0
   895  00F87D  0000               	dw	0
   896  00F87F  0000               	dw	0
   897  00F881  00FE               	dw	254
   898  00F883  001F               	dw	31
   899  00F885  0008               	dw	8
   900  00F887  0000               	dw	0
   901  00F889  0030               	dw	48
   902  00F88B  0000               	dw	0
   903  00F88D  0040               	dw	64
   904  00F88F  0000               	dw	0
   905  00F891  0080               	dw	128
   906  00F893  0000               	dw	0
   907  00F895  0000               	dw	0
   908  00F897  0003               	dw	3
   909  00F899  0000               	dw	0
   910  00F89B  0004               	dw	4
   911  00F89D  00FE               	dw	254
   912  00F89F  001F               	dw	31
   913  00F8A1  0000               	dw	0
   914  00F8A3  0000               	dw	0
   915  00F8A5  000E               	dw	14
   916  00F8A7  0000               	dw	0
   917  00F8A9  0000               	dw	0
   918  00F8AB  00F0               	dw	240
   919  00F8AD  0003               	dw	3
   920  00F8AF  0008               	dw	8
   921  00F8B1  0004               	dw	4
   922  00F8B3  0004               	dw	4
   923  00F8B5  0008               	dw	8
   924  00F8B7  0002               	dw	2
   925  00F8B9  0010               	dw	16
   926  00F8BB  0002               	dw	2
   927  00F8BD  0010               	dw	16
   928  00F8BF  0002               	dw	2
   929  00F8C1  0010               	dw	16
   930  00F8C3  0002               	dw	2
   931  00F8C5  0010               	dw	16
   932  00F8C7  0002               	dw	2
   933  00F8C9  0010               	dw	16
   934  00F8CB  0002               	dw	2
   935  00F8CD  0010               	dw	16
   936  00F8CF  0004               	dw	4
   937  00F8D1  0008               	dw	8
   938  00F8D3  0008               	dw	8
   939  00F8D5  0004               	dw	4
   940  00F8D7  00F0               	dw	240
   941  00F8D9  0003               	dw	3
   942  00F8DB  0000               	dw	0
   943  00F8DD  0000               	dw	0
   944  00F8DF  0009               	dw	9
   945  00F8E1  0000               	dw	0
   946  00F8E3  0000               	dw	0
   947  00F8E5  0000               	dw	0
   948  00F8E7  0000               	dw	0
   949  00F8E9  00FE               	dw	254
   950  00F8EB  001F               	dw	31
   951  00F8ED  0042               	dw	66
   952  00F8EF  0000               	dw	0
   953  00F8F1  0042               	dw	66
   954  00F8F3  0000               	dw	0
   955  00F8F5  0042               	dw	66
   956  00F8F7  0000               	dw	0
   957  00F8F9  0024               	dw	36
   958  00F8FB  0000               	dw	0
   959  00F8FD  0018               	dw	24
   960  00F8FF  0000               	dw	0
   961  00F901  0000               	dw	0
   962  00F903  0000               	dw	0
   963  00F905  000E               	dw	14
   964  00F907  0000               	dw	0
   965  00F909  0000               	dw	0
   966  00F90B  00F0               	dw	240
   967  00F90D  0003               	dw	3
   968  00F90F  0008               	dw	8
   969  00F911  0004               	dw	4
   970  00F913  0004               	dw	4
   971  00F915  0008               	dw	8
   972  00F917  0002               	dw	2
   973  00F919  0010               	dw	16
   974  00F91B  0002               	dw	2
   975  00F91D  0010               	dw	16
   976  00F91F  0002               	dw	2
   977  00F921  0010               	dw	16
   978  00F923  0002               	dw	2
   979  00F925  0011               	dw	17
   980  00F927  0002               	dw	2
   981  00F929  0012               	dw	18
   982  00F92B  0002               	dw	2
   983  00F92D  000C               	dw	12
   984  00F92F  0004               	dw	4
   985  00F931  0008               	dw	8
   986  00F933  0008               	dw	8
   987  00F935  0016               	dw	22
   988  00F937  00F0               	dw	240
   989  00F939  0021               	dw	33
   990  00F93B  0000               	dw	0
   991  00F93D  0000               	dw	0
   992  00F93F  000A               	dw	10
   993  00F941  0000               	dw	0
   994  00F943  0000               	dw	0
   995  00F945  0000               	dw	0
   996  00F947  0000               	dw	0
   997  00F949  00FE               	dw	254
   998  00F94B  001F               	dw	31
   999  00F94D  0042               	dw	66
  1000  00F94F  0000               	dw	0
  1001  00F951  00C2               	dw	194
  1002  00F953  0000               	dw	0
  1003  00F955  0042               	dw	66
  1004  00F957  0001               	dw	1
  1005  00F959  0042               	dw	66
  1006  00F95B  0006               	dw	6
  1007  00F95D  0024               	dw	36
  1008  00F95F  0008               	dw	8
  1009  00F961  0018               	dw	24
  1010  00F963  0010               	dw	16
  1011  00F965  0000               	dw	0
  1012  00F967  0000               	dw	0
  1013  00F969  0008               	dw	8
  1014  00F96B  0000               	dw	0
  1015  00F96D  0004               	dw	4
  1016  00F96F  0018               	dw	24
  1017  00F971  0008               	dw	8
  1018  00F973  0024               	dw	36
  1019  00F975  0010               	dw	16
  1020  00F977  0042               	dw	66
  1021  00F979  0010               	dw	16
  1022  00F97B  0042               	dw	66
  1023  00F97D  0010               	dw	16
  1024  00F97F  0084               	dw	132
  1025  00F981  0008               	dw	8
  1026  00F983  0008               	dw	8
  1027  00F985  0007               	dw	7
  1028  00F987  0000               	dw	0
  1029  00F989  0000               	dw	0
  1030  00F98B  0008               	dw	8
  1031  00F98D  0002               	dw	2
  1032  00F98F  0000               	dw	0
  1033  00F991  0002               	dw	2
  1034  00F993  0000               	dw	0
  1035  00F995  0002               	dw	2
  1036  00F997  0000               	dw	0
  1037  00F999  00FE               	dw	254
  1038  00F99B  001F               	dw	31
  1039  00F99D  0002               	dw	2
  1040  00F99F  0000               	dw	0
  1041  00F9A1  0002               	dw	2
  1042  00F9A3  0000               	dw	0
  1043  00F9A5  0002               	dw	2
  1044  00F9A7  0000               	dw	0
  1045  00F9A9  0000               	dw	0
  1046  00F9AB  0000               	dw	0
  1047  00F9AD  000A               	dw	10
  1048  00F9AF  0000               	dw	0
  1049  00F9B1  0000               	dw	0
  1050  00F9B3  0000               	dw	0
  1051  00F9B5  0000               	dw	0
  1052  00F9B7  00FE               	dw	254
  1053  00F9B9  0007               	dw	7
  1054  00F9BB  0000               	dw	0
  1055  00F9BD  0008               	dw	8
  1056  00F9BF  0000               	dw	0
  1057  00F9C1  0010               	dw	16
  1058  00F9C3  0000               	dw	0
  1059  00F9C5  0010               	dw	16
  1060  00F9C7  0000               	dw	0
  1061  00F9C9  0010               	dw	16
  1062  00F9CB  0000               	dw	0
  1063  00F9CD  0008               	dw	8
  1064  00F9CF  00FE               	dw	254
  1065  00F9D1  0007               	dw	7
  1066  00F9D3  0000               	dw	0
  1067  00F9D5  0000               	dw	0
  1068  00F9D7  000C               	dw	12
  1069  00F9D9  0002               	dw	2
  1070  00F9DB  0000               	dw	0
  1071  00F9DD  001C               	dw	28
  1072  00F9DF  0000               	dw	0
  1073  00F9E1  0060               	dw	96
  1074  00F9E3  0000               	dw	0
  1075  00F9E5  0080               	dw	128
  1076  00F9E7  0001               	dw	1
  1077  00F9E9  0000               	dw	0
  1078  00F9EB  000E               	dw	14
  1079  00F9ED  0000               	dw	0
  1080  00F9EF  0010               	dw	16
  1081  00F9F1  0000               	dw	0
  1082  00F9F3  000E               	dw	14
  1083  00F9F5  0080               	dw	128
  1084  00F9F7  0001               	dw	1
  1085  00F9F9  0060               	dw	96
  1086  00F9FB  0000               	dw	0
  1087  00F9FD  001C               	dw	28
  1088  00F9FF  0000               	dw	0
  1089  00FA01  0002               	dw	2
  1090  00FA03  0000               	dw	0
  1091  00FA05  0000               	dw	0
  1092  00FA07  0000               	dw	0
  1093  00FA09  000F               	dw	15
  1094  00FA0B  0000               	dw	0
  1095  00FA0D  0000               	dw	0
  1096  00FA0F  0006               	dw	6
  1097  00FA11  0000               	dw	0
  1098  00FA13  0078               	dw	120
  1099  00FA15  0000               	dw	0
  1100  00FA17  0080               	dw	128
  1101  00FA19  0007               	dw	7
  1102  00FA1B  0000               	dw	0
  1103  00FA1D  0018               	dw	24
  1104  00FA1F  0080               	dw	128
  1105  00FA21  0007               	dw	7
  1106  00FA23  0078               	dw	120
  1107  00FA25  0000               	dw	0
  1108  00FA27  0006               	dw	6
  1109  00FA29  0000               	dw	0
  1110  00FA2B  0078               	dw	120
  1111  00FA2D  0000               	dw	0
  1112  00FA2F  0080               	dw	128
  1113  00FA31  0007               	dw	7
  1114  00FA33  0000               	dw	0
  1115  00FA35  0018               	dw	24
  1116  00FA37  0080               	dw	128
  1117  00FA39  0007               	dw	7
  1118  00FA3B  0078               	dw	120
  1119  00FA3D  0000               	dw	0
  1120  00FA3F  0006               	dw	6
  1121  00FA41  0000               	dw	0
  1122  00FA43  0000               	dw	0
  1123  00FA45  0000               	dw	0
  1124  00FA47  0009               	dw	9
  1125  00FA49  0000               	dw	0
  1126  00FA4B  0000               	dw	0
  1127  00FA4D  0006               	dw	6
  1128  00FA4F  0018               	dw	24
  1129  00FA51  0008               	dw	8
  1130  00FA53  0004               	dw	4
  1131  00FA55  0030               	dw	48
  1132  00FA57  0003               	dw	3
  1133  00FA59  00C0               	dw	192
  1134  00FA5B  0000               	dw	0
  1135  00FA5D  0030               	dw	48
  1136  00FA5F  0003               	dw	3
  1137  00FA61  0008               	dw	8
  1138  00FA63  0004               	dw	4
  1139  00FA65  0006               	dw	6
  1140  00FA67  0018               	dw	24
  1141  00FA69  0000               	dw	0
  1142  00FA6B  0000               	dw	0
  1143  00FA6D  000B               	dw	11
  1144  00FA6F  0000               	dw	0
  1145  00FA71  0000               	dw	0
  1146  00FA73  0002               	dw	2
  1147  00FA75  0000               	dw	0
  1148  00FA77  0004               	dw	4
  1149  00FA79  0000               	dw	0
  1150  00FA7B  0018               	dw	24
  1151  00FA7D  0000               	dw	0
  1152  00FA7F  0060               	dw	96
  1153  00FA81  0000               	dw	0
  1154  00FA83  0080               	dw	128
  1155  00FA85  001F               	dw	31
  1156  00FA87  0060               	dw	96
  1157  00FA89  0000               	dw	0
  1158  00FA8B  0018               	dw	24
  1159  00FA8D  0000               	dw	0
  1160  00FA8F  0004               	dw	4
  1161  00FA91  0000               	dw	0
  1162  00FA93  0002               	dw	2
  1163  00FA95  0000               	dw	0
  1164  00FA97  0000               	dw	0
  1165  00FA99  0000               	dw	0
  1166  00FA9B  0008               	dw	8
  1167  00FA9D  0002               	dw	2
  1168  00FA9F  0010               	dw	16
  1169  00FAA1  0002               	dw	2
  1170  00FAA3  001C               	dw	28
  1171  00FAA5  0002               	dw	2
  1172  00FAA7  0013               	dw	19
  1173  00FAA9  00C2               	dw	194
  1174  00FAAB  0010               	dw	16
  1175  00FAAD  0032               	dw	50
  1176  00FAAF  0010               	dw	16
  1177  00FAB1  000E               	dw	14
  1178  00FAB3  0010               	dw	16
  1179  00FAB5  0002               	dw	2
  1180  00FAB7  0010               	dw	16
  1181  00FAB9  0000               	dw	0
  1182  00FABB  0000               	dw	0
  1183  00FABD  0006               	dw	6
  1184  00FABF  0000               	dw	0
  1185  00FAC1  0000               	dw	0
  1186  00FAC3  0000               	dw	0
  1187  00FAC5  0000               	dw	0
  1188  00FAC7  00FE               	dw	254
  1189  00FAC9  00FF               	dw	255
  1190  00FACB  0002               	dw	2
  1191  00FACD  0080               	dw	128
  1192  00FACF  0002               	dw	2
  1193  00FAD1  0080               	dw	128
  1194  00FAD3  0000               	dw	0
  1195  00FAD5  0000               	dw	0
  1196  00FAD7  000A               	dw	10
  1197  00FAD9  0002               	dw	2
  1198  00FADB  0000               	dw	0
  1199  00FADD  000C               	dw	12
  1200  00FADF  0000               	dw	0
  1201  00FAE1  0010               	dw	16
  1202  00FAE3  0000               	dw	0
  1203  00FAE5  0060               	dw	96
  1204  00FAE7  0000               	dw	0
  1205  00FAE9  0080               	dw	128
  1206  00FAEB  0001               	dw	1
  1207  00FAED  0000               	dw	0
  1208  00FAEF  0006               	dw	6
  1209  00FAF1  0000               	dw	0
  1210  00FAF3  0008               	dw	8
  1211  00FAF5  0000               	dw	0
  1212  00FAF7  0030               	dw	48
  1213  00FAF9  0000               	dw	0
  1214  00FAFB  0040               	dw	64
  1215  00FAFD  0000               	dw	0
  1216  00FAFF  0000               	dw	0
  1217  00FB01  0005               	dw	5
  1218  00FB03  0000               	dw	0
  1219  00FB05  0000               	dw	0
  1220  00FB07  0002               	dw	2
  1221  00FB09  0080               	dw	128
  1222  00FB0B  0002               	dw	2
  1223  00FB0D  0080               	dw	128
  1224  00FB0F  00FE               	dw	254
  1225  00FB11  00FF               	dw	255
  1226  00FB13  0000               	dw	0
  1227  00FB15  0000               	dw	0
  1228  00FB17  000B               	dw	11
  1229  00FB19  0000               	dw	0
  1230  00FB1B  0000               	dw	0
  1231  00FB1D  0000               	dw	0
  1232  00FB1F  0002               	dw	2
  1233  00FB21  0080               	dw	128
  1234  00FB23  0001               	dw	1
  1235  00FB25  0070               	dw	112
  1236  00FB27  0000               	dw	0
  1237  00FB29  000C               	dw	12
  1238  00FB2B  0000               	dw	0
  1239  00FB2D  0002               	dw	2
  1240  00FB2F  0000               	dw	0
  1241  00FB31  000C               	dw	12
  1242  00FB33  0000               	dw	0
  1243  00FB35  0070               	dw	112
  1244  00FB37  0000               	dw	0
  1245  00FB39  0080               	dw	128
  1246  00FB3B  0001               	dw	1
  1247  00FB3D  0000               	dw	0
  1248  00FB3F  0002               	dw	2
  1249  00FB41  0000               	dw	0
  1250  00FB43  0000               	dw	0
  1251  00FB45  0009               	dw	9
  1252  00FB47  0000               	dw	0
  1253  00FB49  0040               	dw	64
  1254  00FB4B  0000               	dw	0
  1255  00FB4D  0040               	dw	64
  1256  00FB4F  0000               	dw	0
  1257  00FB51  0040               	dw	64
  1258  00FB53  0000               	dw	0
  1259  00FB55  0040               	dw	64
  1260  00FB57  0000               	dw	0
  1261  00FB59  0040               	dw	64
  1262  00FB5B  0000               	dw	0
  1263  00FB5D  0040               	dw	64
  1264  00FB5F  0000               	dw	0
  1265  00FB61  0040               	dw	64
  1266  00FB63  0000               	dw	0
  1267  00FB65  0040               	dw	64
  1268  00FB67  0000               	dw	0
  1269  00FB69  0000               	dw	0
  1270  00FB6B  0005               	dw	5
  1271  00FB6D  0000               	dw	0
  1272  00FB6F  0000               	dw	0
  1273  00FB71  0000               	dw	0
  1274  00FB73  0000               	dw	0
  1275  00FB75  0002               	dw	2
  1276  00FB77  0000               	dw	0
  1277  00FB79  0004               	dw	4
  1278  00FB7B  0000               	dw	0
  1279  00FB7D  0000               	dw	0
  1280  00FB7F  0000               	dw	0
  1281  00FB81  000B               	dw	11
  1282  00FB83  0000               	dw	0
  1283  00FB85  0000               	dw	0
  1284  00FB87  00C0               	dw	192
  1285  00FB89  0007               	dw	7
  1286  00FB8B  0020               	dw	32
  1287  00FB8D  0008               	dw	8
  1288  00FB8F  0010               	dw	16
  1289  00FB91  0010               	dw	16
  1290  00FB93  0010               	dw	16
  1291  00FB95  0010               	dw	16
  1292  00FB97  0010               	dw	16
  1293  00FB99  0010               	dw	16
  1294  00FB9B  0010               	dw	16
  1295  00FB9D  0010               	dw	16
  1296  00FB9F  0010               	dw	16
  1297  00FBA1  0010               	dw	16
  1298  00FBA3  0020               	dw	32
  1299  00FBA5  0008               	dw	8
  1300  00FBA7  00F0               	dw	240
  1301  00FBA9  001F               	dw	31
  1302  00FBAB  0000               	dw	0
  1303  00FBAD  0000               	dw	0
  1304  00FBAF  000B               	dw	11
  1305  00FBB1  0000               	dw	0
  1306  00FBB3  0000               	dw	0
  1307  00FBB5  00FE               	dw	254
  1308  00FBB7  001F               	dw	31
  1309  00FBB9  0020               	dw	32
  1310  00FBBB  0008               	dw	8
  1311  00FBBD  0010               	dw	16
  1312  00FBBF  0010               	dw	16
  1313  00FBC1  0010               	dw	16
  1314  00FBC3  0010               	dw	16
  1315  00FBC5  0010               	dw	16
  1316  00FBC7  0010               	dw	16
  1317  00FBC9  0010               	dw	16
  1318  00FBCB  0010               	dw	16
  1319  00FBCD  0010               	dw	16
  1320  00FBCF  0010               	dw	16
  1321  00FBD1  0020               	dw	32
  1322  00FBD3  0008               	dw	8
  1323  00FBD5  00C0               	dw	192
  1324  00FBD7  0007               	dw	7
  1325  00FBD9  0000               	dw	0
  1326  00FBDB  0000               	dw	0
  1327  00FBDD  000A               	dw	10
  1328  00FBDF  0000               	dw	0
  1329  00FBE1  0000               	dw	0
  1330  00FBE3  00C0               	dw	192
  1331  00FBE5  0007               	dw	7
  1332  00FBE7  0020               	dw	32
  1333  00FBE9  0008               	dw	8
  1334  00FBEB  0010               	dw	16
  1335  00FBED  0010               	dw	16
  1336  00FBEF  0010               	dw	16
  1337  00FBF1  0010               	dw	16
  1338  00FBF3  0010               	dw	16
  1339  00FBF5  0010               	dw	16
  1340  00FBF7  0010               	dw	16
  1341  00FBF9  0010               	dw	16
  1342  00FBFB  0020               	dw	32
  1343  00FBFD  0008               	dw	8
  1344  00FBFF  0040               	dw	64
  1345  00FC01  0004               	dw	4
  1346  00FC03  0000               	dw	0
  1347  00FC05  0000               	dw	0
  1348  00FC07  000B               	dw	11
  1349  00FC09  0000               	dw	0
  1350  00FC0B  0000               	dw	0
  1351  00FC0D  00C0               	dw	192
  1352  00FC0F  0007               	dw	7
  1353  00FC11  0020               	dw	32
  1354  00FC13  0008               	dw	8
  1355  00FC15  0010               	dw	16
  1356  00FC17  0010               	dw	16
  1357  00FC19  0010               	dw	16
  1358  00FC1B  0010               	dw	16
  1359  00FC1D  0010               	dw	16
  1360  00FC1F  0010               	dw	16
  1361  00FC21  0010               	dw	16
  1362  00FC23  0010               	dw	16
  1363  00FC25  0010               	dw	16
  1364  00FC27  0010               	dw	16
  1365  00FC29  0020               	dw	32
  1366  00FC2B  0008               	dw	8
  1367  00FC2D  00FE               	dw	254
  1368  00FC2F  001F               	dw	31
  1369  00FC31  0000               	dw	0
  1370  00FC33  0000               	dw	0
  1371  00FC35  000A               	dw	10
  1372  00FC37  0000               	dw	0
  1373  00FC39  0000               	dw	0
  1374  00FC3B  00C0               	dw	192
  1375  00FC3D  0007               	dw	7
  1376  00FC3F  0020               	dw	32
  1377  00FC41  0009               	dw	9
  1378  00FC43  0010               	dw	16
  1379  00FC45  0011               	dw	17
  1380  00FC47  0010               	dw	16
  1381  00FC49  0011               	dw	17
  1382  00FC4B  0010               	dw	16
  1383  00FC4D  0011               	dw	17
  1384  00FC4F  0010               	dw	16
  1385  00FC51  0011               	dw	17
  1386  00FC53  0020               	dw	32
  1387  00FC55  0009               	dw	9
  1388  00FC57  00C0               	dw	192
  1389  00FC59  0005               	dw	5
  1390  00FC5B  0000               	dw	0
  1391  00FC5D  0000               	dw	0
  1392  00FC5F  0006               	dw	6
  1393  00FC61  0000               	dw	0
  1394  00FC63  0000               	dw	0
  1395  00FC65  0010               	dw	16
  1396  00FC67  0000               	dw	0
  1397  00FC69  00FC               	dw	252
  1398  00FC6B  001F               	dw	31
  1399  00FC6D  0012               	dw	18
  1400  00FC6F  0000               	dw	0
  1401  00FC71  0012               	dw	18
  1402  00FC73  0000               	dw	0
  1403  00FC75  0000               	dw	0
  1404  00FC77  0000               	dw	0
  1405  00FC79  000B               	dw	11
  1406  00FC7B  0000               	dw	0
  1407  00FC7D  0000               	dw	0
  1408  00FC7F  00C0               	dw	192
  1409  00FC81  0027               	dw	39
  1410  00FC83  0020               	dw	32
  1411  00FC85  0048               	dw	72
  1412  00FC87  0010               	dw	16
  1413  00FC89  0090               	dw	144
  1414  00FC8B  0010               	dw	16
  1415  00FC8D  0090               	dw	144
  1416  00FC8F  0010               	dw	16
  1417  00FC91  0090               	dw	144
  1418  00FC93  0010               	dw	16
  1419  00FC95  0090               	dw	144
  1420  00FC97  0010               	dw	16
  1421  00FC99  0090               	dw	144
  1422  00FC9B  0020               	dw	32
  1423  00FC9D  0048               	dw	72
  1424  00FC9F  00F0               	dw	240
  1425  00FCA1  003F               	dw	63
  1426  00FCA3  0000               	dw	0
  1427  00FCA5  0000               	dw	0
  1428  00FCA7  000A               	dw	10
  1429  00FCA9  0000               	dw	0
  1430  00FCAB  0000               	dw	0
  1431  00FCAD  00FE               	dw	254
  1432  00FCAF  001F               	dw	31
  1433  00FCB1  0020               	dw	32
  1434  00FCB3  0000               	dw	0
  1435  00FCB5  0010               	dw	16
  1436  00FCB7  0000               	dw	0
  1437  00FCB9  0010               	dw	16
  1438  00FCBB  0000               	dw	0
  1439  00FCBD  0010               	dw	16
  1440  00FCBF  0000               	dw	0
  1441  00FCC1  0010               	dw	16
  1442  00FCC3  0000               	dw	0
  1443  00FCC5  0020               	dw	32
  1444  00FCC7  0000               	dw	0
  1445  00FCC9  00C0               	dw	192
  1446  00FCCB  001F               	dw	31
  1447  00FCCD  0000               	dw	0
  1448  00FCCF  0000               	dw	0
  1449  00FCD1  0003               	dw	3
  1450  00FCD3  0000               	dw	0
  1451  00FCD5  0000               	dw	0
  1452  00FCD7  00F6               	dw	246
  1453  00FCD9  001F               	dw	31
  1454  00FCDB  0000               	dw	0
  1455  00FCDD  0000               	dw	0
  1456  00FCDF  0003               	dw	3
  1457  00FCE1  0000               	dw	0
  1458  00FCE3  0080               	dw	128
  1459  00FCE5  00F6               	dw	246
  1460  00FCE7  007F               	dw	127
  1461  00FCE9  0000               	dw	0
  1462  00FCEB  0000               	dw	0
  1463  00FCED  0008               	dw	8
  1464  00FCEF  0000               	dw	0
  1465  00FCF1  0000               	dw	0
  1466  00FCF3  00FE               	dw	254
  1467  00FCF5  001F               	dw	31
  1468  00FCF7  0000               	dw	0
  1469  00FCF9  0001               	dw	1
  1470  00FCFB  0080               	dw	128
  1471  00FCFD  0002               	dw	2
  1472  00FCFF  0040               	dw	64
  1473  00FD01  0004               	dw	4
  1474  00FD03  0020               	dw	32
  1475  00FD05  0008               	dw	8
  1476  00FD07  0010               	dw	16
  1477  00FD09  0010               	dw	16
  1478  00FD0B  0000               	dw	0
  1479  00FD0D  0000               	dw	0
  1480  00FD0F  0003               	dw	3
  1481  00FD11  0000               	dw	0
  1482  00FD13  0000               	dw	0
  1483  00FD15  00FE               	dw	254
  1484  00FD17  001F               	dw	31
  1485  00FD19  0000               	dw	0
  1486  00FD1B  0000               	dw	0
  1487  00FD1D  000F               	dw	15
  1488  00FD1F  0000               	dw	0
  1489  00FD21  0000               	dw	0
  1490  00FD23  00F0               	dw	240
  1491  00FD25  001F               	dw	31
  1492  00FD27  0020               	dw	32
  1493  00FD29  0000               	dw	0
  1494  00FD2B  0010               	dw	16
  1495  00FD2D  0000               	dw	0
  1496  00FD2F  0010               	dw	16
  1497  00FD31  0000               	dw	0
  1498  00FD33  0010               	dw	16
  1499  00FD35  0000               	dw	0
  1500  00FD37  0020               	dw	32
  1501  00FD39  0000               	dw	0
  1502  00FD3B  00C0               	dw	192
  1503  00FD3D  001F               	dw	31
  1504  00FD3F  0020               	dw	32
  1505  00FD41  0000               	dw	0
  1506  00FD43  0010               	dw	16
  1507  00FD45  0000               	dw	0
  1508  00FD47  0010               	dw	16
  1509  00FD49  0000               	dw	0
  1510  00FD4B  0010               	dw	16
  1511  00FD4D  0000               	dw	0
  1512  00FD4F  0020               	dw	32
  1513  00FD51  0000               	dw	0
  1514  00FD53  00C0               	dw	192
  1515  00FD55  001F               	dw	31
  1516  00FD57  0000               	dw	0
  1517  00FD59  0000               	dw	0
  1518  00FD5B  000A               	dw	10
  1519  00FD5D  0000               	dw	0
  1520  00FD5F  0000               	dw	0
  1521  00FD61  00F0               	dw	240
  1522  00FD63  001F               	dw	31
  1523  00FD65  0020               	dw	32
  1524  00FD67  0000               	dw	0
  1525  00FD69  0010               	dw	16
  1526  00FD6B  0000               	dw	0
  1527  00FD6D  0010               	dw	16
  1528  00FD6F  0000               	dw	0
  1529  00FD71  0010               	dw	16
  1530  00FD73  0000               	dw	0
  1531  00FD75  0010               	dw	16
  1532  00FD77  0000               	dw	0
  1533  00FD79  0020               	dw	32
  1534  00FD7B  0000               	dw	0
  1535  00FD7D  00C0               	dw	192
  1536  00FD7F  001F               	dw	31
  1537  00FD81  0000               	dw	0
  1538  00FD83  0000               	dw	0
  1539  00FD85  000A               	dw	10
  1540  00FD87  0000               	dw	0
  1541  00FD89  0000               	dw	0
  1542  00FD8B  00C0               	dw	192
  1543  00FD8D  0007               	dw	7
  1544  00FD8F  0020               	dw	32
  1545  00FD91  0008               	dw	8
  1546  00FD93  0010               	dw	16
  1547  00FD95  0010               	dw	16
  1548  00FD97  0010               	dw	16
  1549  00FD99  0010               	dw	16
  1550  00FD9B  0010               	dw	16
  1551  00FD9D  0010               	dw	16
  1552  00FD9F  0010               	dw	16
  1553  00FDA1  0010               	dw	16
  1554  00FDA3  0020               	dw	32
  1555  00FDA5  0008               	dw	8
  1556  00FDA7  00C0               	dw	192
  1557  00FDA9  0007               	dw	7
  1558  00FDAB  0000               	dw	0
  1559  00FDAD  0000               	dw	0
  1560  00FDAF  000B               	dw	11
  1561  00FDB1  0000               	dw	0
  1562  00FDB3  0000               	dw	0
  1563  00FDB5  00F0               	dw	240
  1564  00FDB7  00FF               	dw	255
  1565  00FDB9  0020               	dw	32
  1566  00FDBB  0008               	dw	8
  1567  00FDBD  0010               	dw	16
  1568  00FDBF  0010               	dw	16
  1569  00FDC1  0010               	dw	16
  1570  00FDC3  0010               	dw	16
  1571  00FDC5  0010               	dw	16
  1572  00FDC7  0010               	dw	16
  1573  00FDC9  0010               	dw	16
  1574  00FDCB  0010               	dw	16
  1575  00FDCD  0010               	dw	16
  1576  00FDCF  0010               	dw	16
  1577  00FDD1  0020               	dw	32
  1578  00FDD3  0008               	dw	8
  1579  00FDD5  00C0               	dw	192
  1580  00FDD7  0007               	dw	7
  1581  00FDD9  0000               	dw	0
  1582  00FDDB  0000               	dw	0
  1583  00FDDD  000B               	dw	11
  1584  00FDDF  0000               	dw	0
  1585  00FDE1  0000               	dw	0
  1586  00FDE3  00C0               	dw	192
  1587  00FDE5  0007               	dw	7
  1588  00FDE7  0020               	dw	32
  1589  00FDE9  0008               	dw	8
  1590  00FDEB  0010               	dw	16
  1591  00FDED  0010               	dw	16
  1592  00FDEF  0010               	dw	16
  1593  00FDF1  0010               	dw	16
  1594  00FDF3  0010               	dw	16
  1595  00FDF5  0010               	dw	16
  1596  00FDF7  0010               	dw	16
  1597  00FDF9  0010               	dw	16
  1598  00FDFB  0010               	dw	16
  1599  00FDFD  0010               	dw	16
  1600  00FDFF  0020               	dw	32
  1601  00FE01  0008               	dw	8
  1602  00FE03  00F0               	dw	240
  1603  00FE05  00FF               	dw	255
  1604  00FE07  0000               	dw	0
  1605  00FE09  0000               	dw	0
  1606  00FE0B  0006               	dw	6
  1607  00FE0D  0000               	dw	0
  1608  00FE0F  0000               	dw	0
  1609  00FE11  00F0               	dw	240
  1610  00FE13  001F               	dw	31
  1611  00FE15  0020               	dw	32
  1612  00FE17  0000               	dw	0
  1613  00FE19  0010               	dw	16
  1614  00FE1B  0000               	dw	0
  1615  00FE1D  0010               	dw	16
  1616  00FE1F  0000               	dw	0
  1617  00FE21  0000               	dw	0
  1618  00FE23  0000               	dw	0
  1619  00FE25  0006               	dw	6
  1620  00FE27  0060               	dw	96
  1621  00FE29  0008               	dw	8
  1622  00FE2B  0090               	dw	144
  1623  00FE2D  0010               	dw	16
  1624  00FE2F  0010               	dw	16
  1625  00FE31  0011               	dw	17
  1626  00FE33  0010               	dw	16
  1627  00FE35  0011               	dw	17
  1628  00FE37  0020               	dw	32
  1629  00FE39  000E               	dw	14
  1630  00FE3B  0000               	dw	0
  1631  00FE3D  0000               	dw	0
  1632  00FE3F  0007               	dw	7
  1633  00FE41  0000               	dw	0
  1634  00FE43  0000               	dw	0
  1635  00FE45  0010               	dw	16
  1636  00FE47  0000               	dw	0
  1637  00FE49  0010               	dw	16
  1638  00FE4B  0000               	dw	0
  1639  00FE4D  00FE               	dw	254
  1640  00FE4F  001F               	dw	31
  1641  00FE51  0010               	dw	16
  1642  00FE53  0000               	dw	0
  1643  00FE55  0010               	dw	16
  1644  00FE57  0000               	dw	0
  1645  00FE59  0000               	dw	0
  1646  00FE5B  0000               	dw	0
  1647  00FE5D  000A               	dw	10
  1648  00FE5F  0000               	dw	0
  1649  00FE61  0000               	dw	0
  1650  00FE63  00F0               	dw	240
  1651  00FE65  0007               	dw	7
  1652  00FE67  0000               	dw	0
  1653  00FE69  0008               	dw	8
  1654  00FE6B  0000               	dw	0
  1655  00FE6D  0010               	dw	16
  1656  00FE6F  0000               	dw	0
  1657  00FE71  0010               	dw	16
  1658  00FE73  0000               	dw	0
  1659  00FE75  0010               	dw	16
  1660  00FE77  0000               	dw	0
  1661  00FE79  0010               	dw	16
  1662  00FE7B  0000               	dw	0
  1663  00FE7D  0008               	dw	8
  1664  00FE7F  00F0               	dw	240
  1665  00FE81  0007               	dw	7
  1666  00FE83  0000               	dw	0
  1667  00FE85  0000               	dw	0
  1668  00FE87  000A               	dw	10
  1669  00FE89  0010               	dw	16
  1670  00FE8B  0000               	dw	0
  1671  00FE8D  0060               	dw	96
  1672  00FE8F  0000               	dw	0
  1673  00FE91  0080               	dw	128
  1674  00FE93  0003               	dw	3
  1675  00FE95  0000               	dw	0
  1676  00FE97  000C               	dw	12
  1677  00FE99  0000               	dw	0
  1678  00FE9B  0010               	dw	16
  1679  00FE9D  0000               	dw	0
  1680  00FE9F  000C               	dw	12
  1681  00FEA1  0080               	dw	128
  1682  00FEA3  0003               	dw	3
  1683  00FEA5  0060               	dw	96
  1684  00FEA7  0000               	dw	0
  1685  00FEA9  0010               	dw	16
  1686  00FEAB  0000               	dw	0
  1687  00FEAD  0000               	dw	0
  1688  00FEAF  0000               	dw	0
  1689  00FEB1  000E               	dw	14
  1690  00FEB3  0010               	dw	16
  1691  00FEB5  0000               	dw	0
  1692  00FEB7  00E0               	dw	224
  1693  00FEB9  0000               	dw	0
  1694  00FEBB  0000               	dw	0
  1695  00FEBD  0007               	dw	7
  1696  00FEBF  0000               	dw	0
  1697  00FEC1  0018               	dw	24
  1698  00FEC3  0000               	dw	0
  1699  00FEC5  0007               	dw	7
  1700  00FEC7  00E0               	dw	224
  1701  00FEC9  0000               	dw	0
  1702  00FECB  0010               	dw	16
  1703  00FECD  0000               	dw	0
  1704  00FECF  00E0               	dw	224
  1705  00FED1  0000               	dw	0
  1706  00FED3  0000               	dw	0
  1707  00FED5  0007               	dw	7
  1708  00FED7  0000               	dw	0
  1709  00FED9  0018               	dw	24
  1710  00FEDB  0000               	dw	0
  1711  00FEDD  0007               	dw	7
  1712  00FEDF  00E0               	dw	224
  1713  00FEE1  0000               	dw	0
  1714  00FEE3  0010               	dw	16
  1715  00FEE5  0000               	dw	0
  1716  00FEE7  0000               	dw	0
  1717  00FEE9  0000               	dw	0
  1718  00FEEB  0009               	dw	9
  1719  00FEED  0010               	dw	16
  1720  00FEEF  0010               	dw	16
  1721  00FEF1  0020               	dw	32
  1722  00FEF3  0008               	dw	8
  1723  00FEF5  0040               	dw	64
  1724  00FEF7  0004               	dw	4
  1725  00FEF9  0080               	dw	128
  1726  00FEFB  0003               	dw	3
  1727  00FEFD  0080               	dw	128
  1728  00FEFF  0003               	dw	3
  1729  00FF01  0040               	dw	64
  1730  00FF03  0004               	dw	4
  1731  00FF05  0020               	dw	32
  1732  00FF07  0008               	dw	8
  1733  00FF09  0010               	dw	16
  1734  00FF0B  0010               	dw	16
  1735  00FF0D  0000               	dw	0
  1736  00FF0F  0000               	dw	0
  1737  00FF11  0009               	dw	9
  1738  00FF13  0010               	dw	16
  1739  00FF15  0000               	dw	0
  1740  00FF17  00E0               	dw	224
  1741  00FF19  0000               	dw	0
  1742  00FF1B  0000               	dw	0
  1743  00FF1D  0083               	dw	131
  1744  00FF1F  0000               	dw	0
  1745  00FF21  007C               	dw	124
  1746  00FF23  0000               	dw	0
  1747  00FF25  000C               	dw	12
  1748  00FF27  0000               	dw	0
  1749  00FF29  0003               	dw	3
  1750  00FF2B  00E0               	dw	224
  1751  00FF2D  0000               	dw	0
  1752  00FF2F  0010               	dw	16
  1753  00FF31  0000               	dw	0
  1754  00FF33  0000               	dw	0
  1755  00FF35  0000               	dw	0
  1756  00FF37  0008               	dw	8
  1757  00FF39  0010               	dw	16
  1758  00FF3B  0010               	dw	16
  1759  00FF3D  0010               	dw	16
  1760  00FF3F  0018               	dw	24
  1761  00FF41  0010               	dw	16
  1762  00FF43  0016               	dw	22
  1763  00FF45  0010               	dw	16
  1764  00FF47  0011               	dw	17
  1765  00FF49  00D0               	dw	208
  1766  00FF4B  0010               	dw	16
  1767  00FF4D  0030               	dw	48
  1768  00FF4F  0010               	dw	16
  1769  00FF51  0010               	dw	16
  1770  00FF53  0010               	dw	16
  1771  00FF55  0000               	dw	0
  1772  00FF57  0000               	dw	0
  1773  00FF59  0007               	dw	7
  1774  00FF5B  0000               	dw	0
  1775  00FF5D  0000               	dw	0
  1776  00FF5F  0000               	dw	0
  1777  00FF61  0001               	dw	1
  1778  00FF63  0080               	dw	128
  1779  00FF65  0002               	dw	2
  1780  00FF67  00FC               	dw	252
  1781  00FF69  007E               	dw	126
  1782  00FF6B  0002               	dw	2
  1783  00FF6D  0080               	dw	128
  1784  00FF6F  0002               	dw	2
  1785  00FF71  0080               	dw	128
  1786  00FF73  0000               	dw	0
  1787  00FF75  0000               	dw	0
  1788  00FF77  0007               	dw	7
  1789  00FF79  0000               	dw	0
  1790  00FF7B  0000               	dw	0
  1791  00FF7D  0000               	dw	0
  1792  00FF7F  0000               	dw	0
  1793  00FF81  0000               	dw	0
  1794  00FF83  0000               	dw	0
  1795  00FF85  0000               	dw	0
  1796  00FF87  0000               	dw	0
  1797  00FF89  0000               	dw	0
  1798  00FF8B  0000               	dw	0
  1799  00FF8D  00FE               	dw	254
  1800  00FF8F  00FF               	dw	255
  1801  00FF91  0000               	dw	0
  1802  00FF93  0000               	dw	0
  1803  00FF95  0006               	dw	6
  1804  00FF97  0002               	dw	2
  1805  00FF99  0080               	dw	128
  1806  00FF9B  0002               	dw	2
  1807  00FF9D  0080               	dw	128
  1808  00FF9F  00FC               	dw	252
  1809  00FFA1  007E               	dw	126
  1810  00FFA3  0080               	dw	128
  1811  00FFA5  0002               	dw	2
  1812  00FFA7  0000               	dw	0
  1813  00FFA9  0001               	dw	1
  1814  00FFAB  0000               	dw	0
  1815  00FFAD  0000               	dw	0
  1816  00FFAF  000A               	dw	10
  1817  00FFB1  0000               	dw	0
  1818  00FFB3  0000               	dw	0
  1819  00FFB5  0080               	dw	128
  1820  00FFB7  0000               	dw	0
  1821  00FFB9  0040               	dw	64
  1822  00FFBB  0000               	dw	0
  1823  00FFBD  0040               	dw	64
  1824  00FFBF  0000               	dw	0
  1825  00FFC1  0040               	dw	64
  1826  00FFC3  0000               	dw	0
  1827  00FFC5  0080               	dw	128
  1828  00FFC7  0000               	dw	0
  1829  00FFC9  0080               	dw	128
  1830  00FFCB  0000               	dw	0
  1831  00FFCD  0080               	dw	128
  1832  00FFCF  0000               	dw	0
  1833  00FFD1  0040               	dw	64
  1834  00FFD3  0000               	dw	0
  1835  00FFD5  0000               	dw	0
  1836  00FFD7  0000               	dw	0
  1837  00FFD9  0005               	dw	5
  1838  00FFDB  00FF               	dw	255
  1839  00FFDD  000F               	dw	15
  1840  00FFDF  0001               	dw	1
  1841  00FFE1  0008               	dw	8
  1842  00FFE3  0001               	dw	1
  1843  00FFE5  0008               	dw	8
  1844  00FFE7  00FF               	dw	255
  1845  00FFE9  000F               	dw	15
  1846  00FFEB  0000               	dw	0
  1847  00FFED  0000               	dw	0
  1848  00FFEF                     __end_of_font:
  1849                           	opt callstack 0
  1850  00FFEF                     _spi_configuration:
  1851                           	opt callstack 0
  1852  00FFEF  00                 	db	0
  1853  00FFF0  40                 	db	64
  1854  00FFF1  01                 	db	1
  1855  00FFF2  00                 	db	0
  1856  00FFF3                     __end_of_spi_configuration:
  1857                           	opt callstack 0
  1858  00FFF3                     STR_1:
  1859  00FFF3  48                 	db	72	;'H'
  1860  00FFF4  45                 	db	69	;'E'
  1861  00FFF5  4C                 	db	76	;'L'
  1862  00FFF6  4C                 	db	76	;'L'
  1863  00FFF7  4F                 	db	79	;'O'
  1864  00FFF8  20                 	db	32
  1865  00FFF9  57                 	db	87	;'W'
  1866  00FFFA  4F                 	db	79	;'O'
  1867  00FFFB  52                 	db	82	;'R'
  1868  00FFFC  4C                 	db	76	;'L'
  1869  00FFFD  44                 	db	68	;'D'
  1870  00FFFE  00                 	db	0
  1871                           
  1872                           ; #config settings
  1873  00FFFF  00                 	db	0	; dummy byte at the end
  1874  0000                     
  1875                           	psect	nvCOMRAM
  1876  000039                     __pnvCOMRAM:
  1877                           	opt callstack 0
  1878  000039                     _timer1ReloadVal:
  1879                           	opt callstack 0
  1880  000039                     	ds	2
  1881  00003B                     _IOCB4_InterruptHandler:
  1882                           	opt callstack 0
  1883  00003B                     	ds	2
  1884  0000                     _IOCBbits	set	3930
  1885  0000                     _WPUB	set	3931
  1886  0000                     _ANCON1	set	3932
  1887  0000                     _ANCON0	set	3933
  1888  0000                     _LATEbits	set	3981
  1889  0000                     _SSPSTATbits	set	4039
  1890  0000                     _LATAbits	set	3977
  1891  0000                     _PORTBbits	set	3969
  1892  0000                     _T1GCONbits	set	4010
  1893  0000                     _T1CONbits	set	4045
  1894  0000                     _T1CON	set	4045
  1895  0000                     _TMR1L	set	4046
  1896  0000                     _TMR1H	set	4047
  1897  0000                     _T1GCON	set	4010
  1898  0000                     _ADCON0bits	set	4034
  1899  0000                     _ADRESL	set	4035
  1900  0000                     _ADRESH	set	4036
  1901  0000                     _ADCON2	set	4032
  1902  0000                     _ADCON1	set	4033
  1903  0000                     _ADCON0	set	4034
  1904  0000                     _PIR1bits	set	3998
  1905  0000                     _SSPBUF	set	4041
  1906  0000                     _SSPCON2	set	4037
  1907  0000                     _SSPCON1bits	set	4038
  1908  0000                     _TRISCbits	set	3988
  1909  0000                     _SSPADD	set	4040
  1910  0000                     _SSPCON1	set	4038
  1911  0000                     _SSPSTAT	set	4039
  1912  0000                     _INTCON2bits	set	4081
  1913  0000                     _TRISD	set	3989
  1914  0000                     _TRISC	set	3988
  1915  0000                     _TRISB	set	3987
  1916  0000                     _TRISA	set	3986
  1917  0000                     _TRISE	set	3990
  1918  0000                     _LATC	set	3979
  1919  0000                     _LATB	set	3978
  1920  0000                     _LATA	set	3977
  1921  0000                     _LATD	set	3980
  1922  0000                     _LATE	set	3981
  1923  0000                     _INTCONbits	set	4082
  1924  0000                     _RCONbits	set	4048
  1925  0000                     _REFOCON	set	3994
  1926  0000                     _OSCTUNE	set	3995
  1927  0000                     _OSCCON2	set	4050
  1928  0000                     _OSCCON	set	4051
  1929                           
  1930                           	psect	cinit
  1931  0009F8                     __pcinit:
  1932                           	opt callstack 0
  1933  0009F8                     start_initialization:
  1934                           	opt callstack 0
  1935  0009F8                     __initialization:
  1936                           	opt callstack 0
  1937                           
  1938                           ; Clear objects allocated to COMRAM (5 bytes)
  1939  0009F8  6A38               	clrf	(__pbssCOMRAM+4)& (0+255),c
  1940  0009FA  6A37               	clrf	(__pbssCOMRAM+3)& (0+255),c
  1941  0009FC  6A36               	clrf	(__pbssCOMRAM+2)& (0+255),c
  1942  0009FE  6A35               	clrf	(__pbssCOMRAM+1)& (0+255),c
  1943  000A00  6A34               	clrf	__pbssCOMRAM& (0+255),c
  1944  000A02                     end_of_initialization:
  1945                           	opt callstack 0
  1946  000A02                     __end_of__initialization:
  1947                           	opt callstack 0
  1948  000A02  903D               	bcf	int$flags,0,c	;clear compiler interrupt flag (level 1)
  1949  000A04  923D               	bcf	int$flags,1,c	;clear compiler interrupt flag (level 2)
  1950  000A06  0100               	movlb	0
  1951  000A08  EFBF  F003         	goto	_main	;jump to C main() function
  1952                           
  1953                           	psect	bssCOMRAM
  1954  000034                     __pbssCOMRAM:
  1955                           	opt callstack 0
  1956  000034                     _global_bg_color:
  1957                           	opt callstack 0
  1958  000034                     	ds	2
  1959  000036                     _ADC_InterruptHandler:
  1960                           	opt callstack 0
  1961  000036                     	ds	2
  1962  000038                     _mode:
  1963                           	opt callstack 0
  1964  000038                     	ds	1
  1965                           
  1966                           	psect	cstackCOMRAM
  1967  000001                     __pcstackCOMRAM:
  1968                           	opt callstack 0
  1969  000001                     ??_INTERRUPT_InterruptManager:
  1970  000001                     
  1971                           ; 1 bytes @ 0x0
  1972  000001                     	ds	2
  1973  000003                     ??_TMR1_Initialize:
  1974  000003                     ??_SPI_Open:
  1975  000003                     ??_msDelay:
  1976  000003                     SPI_ExchangeByte@data:
  1977                           	opt callstack 0
  1978  000003                     IOCB4_SetInterruptHandler@InterruptHandler:
  1979                           	opt callstack 0
  1980                           
  1981                           ; 2 bytes @ 0x2
  1982  000003                     	ds	1
  1983  000004                     SPI_Open@spiUniqueConfiguration:
  1984                           	opt callstack 0
  1985  000004                     msDelay@ms:
  1986                           	opt callstack 0
  1987  000004                     lcd_send@value:
  1988                           	opt callstack 0
  1989                           
  1990                           ; 1 bytes @ 0x3
  1991  000004                     	ds	1
  1992  000005                     msDelay@k:
  1993                           	opt callstack 0
  1994  000005                     lcd_send@dc:
  1995                           	opt callstack 0
  1996                           
  1997                           ; 1 bytes @ 0x4
  1998  000005                     	ds	1
  1999  000006                     lcd_set_cursor_x@x:
  2000                           	opt callstack 0
  2001  000006                     lcd_set_cursor_y@y:
  2002                           	opt callstack 0
  2003  000006                     lcd_draw_pixel@color:
  2004                           	opt callstack 0
  2005                           
  2006                           ; 2 bytes @ 0x5
  2007  000006                     	ds	2
  2008  000008                     lcd_set_cursor@x:
  2009                           	opt callstack 0
  2010                           
  2011                           ; 2 bytes @ 0x7
  2012  000008                     	ds	2
  2013  00000A                     lcd_set_cursor@y:
  2014                           	opt callstack 0
  2015                           
  2016                           ; 2 bytes @ 0x9
  2017  00000A                     	ds	2
  2018  00000C                     lcd_fill@bg_color:
  2019                           	opt callstack 0
  2020  00000C                     lcd_draw_char@x:
  2021                           	opt callstack 0
  2022                           
  2023                           ; 2 bytes @ 0xB
  2024  00000C                     	ds	2
  2025  00000E                     lcd_fill@height:
  2026                           	opt callstack 0
  2027  00000E                     lcd_draw_char@y:
  2028                           	opt callstack 0
  2029                           
  2030                           ; 2 bytes @ 0xD
  2031  00000E                     	ds	2
  2032  000010                     lcd_fill@width:
  2033                           	opt callstack 0
  2034  000010                     lcd_draw_char@fIndex:
  2035                           	opt callstack 0
  2036                           
  2037                           ; 2 bytes @ 0xF
  2038  000010                     	ds	2
  2039  000012                     lcd_draw_char@fg_color:
  2040                           	opt callstack 0
  2041                           
  2042                           ; 2 bytes @ 0x11
  2043  000012                     	ds	2
  2044  000014                     lcd_draw_char@bg_color:
  2045                           	opt callstack 0
  2046                           
  2047                           ; 2 bytes @ 0x13
  2048  000014                     	ds	2
  2049  000016                     ??_lcd_draw_char:
  2050                           
  2051                           ; 1 bytes @ 0x15
  2052  000016                     	ds	9
  2053  00001F                     lcd_draw_char@j:
  2054                           	opt callstack 0
  2055                           
  2056                           ; 1 bytes @ 0x1E
  2057  00001F                     	ds	1
  2058  000020                     lcd_draw_char@k:
  2059                           	opt callstack 0
  2060                           
  2061                           ; 1 bytes @ 0x1F
  2062  000020                     	ds	1
  2063  000021                     lcd_draw_char@i:
  2064                           	opt callstack 0
  2065                           
  2066                           ; 1 bytes @ 0x20
  2067  000021                     	ds	1
  2068  000022                     lcd_draw_string@x:
  2069                           	opt callstack 0
  2070                           
  2071                           ; 2 bytes @ 0x21
  2072  000022                     	ds	2
  2073  000024                     lcd_draw_string@y:
  2074                           	opt callstack 0
  2075                           
  2076                           ; 2 bytes @ 0x23
  2077  000024                     	ds	2
  2078  000026                     lcd_draw_string@pS:
  2079                           	opt callstack 0
  2080                           
  2081                           ; 2 bytes @ 0x25
  2082  000026                     	ds	2
  2083  000028                     lcd_draw_string@fg_color:
  2084                           	opt callstack 0
  2085                           
  2086                           ; 2 bytes @ 0x27
  2087  000028                     	ds	2
  2088  00002A                     lcd_draw_string@bg_color:
  2089                           	opt callstack 0
  2090                           
  2091                           ; 2 bytes @ 0x29
  2092  00002A                     	ds	2
  2093  00002C                     ??_lcd_draw_string:
  2094                           
  2095                           ; 1 bytes @ 0x2B
  2096  00002C                     	ds	4
  2097  000030                     lcd_draw_string@k:
  2098                           	opt callstack 0
  2099                           
  2100                           ; 2 bytes @ 0x2F
  2101  000030                     	ds	2
  2102  000032                     lcd_draw_string@lIndex:
  2103                           	opt callstack 0
  2104                           
  2105                           ; 2 bytes @ 0x31
  2106  000032                     	ds	2
  2107  000034                     
  2108                           ; 1 bytes @ 0x33
  2109 ;;
  2110 ;;Main: autosize = 0, tempsize = 0, incstack = 0, save=0
  2111 ;;
  2112 ;; *************** function _main *****************
  2113 ;; Defined at:
  2114 ;;		line 26 in file "main.c"
  2115 ;; Parameters:    Size  Location     Type
  2116 ;;		None
  2117 ;; Auto vars:     Size  Location     Type
  2118 ;;		None
  2119 ;; Return value:  Size  Location     Type
  2120 ;;                  1    wreg      void 
  2121 ;; Registers used:
  2122 ;;		wreg, status,2, status,0, tblptrl, tblptrh, tblptru, prodl, prodh, cstack
  2123 ;; Tracked objects:
  2124 ;;		On entry : 0/0
  2125 ;;		On exit  : 0/0
  2126 ;;		Unchanged: 0/0
  2127 ;; Data sizes:     COMRAM   BANK0   BANK1   BANK2   BANK3   BANK4   BANK5   BANK6   BANK7   BANK8   BANK9  BANK10  BANK1
      +1  BANK12  BANK13  BANK14
  2128 ;;      Params:         0       0       0       0       0       0       0       0       0       0       0       0       
      +0       0       0       0
  2129 ;;      Locals:         0       0       0       0       0       0       0       0       0       0       0       0       
      +0       0       0       0
  2130 ;;      Temps:          0       0       0       0       0       0       0       0       0       0       0       0       
      +0       0       0       0
  2131 ;;      Totals:         0       0       0       0       0       0       0       0       0       0       0       0       
      +0       0       0       0
  2132 ;;Total ram usage:        0 bytes
  2133 ;; Hardware stack levels required when called:   10
  2134 ;; This function calls:
  2135 ;;		_IOCB4_SetInterruptHandler
  2136 ;;		_SPI_Open
  2137 ;;		_SYSTEM_Initialize
  2138 ;;		_lcd_draw_string
  2139 ;;		_lcd_init
  2140 ;; This function is called by:
  2141 ;;		Startup code after reset
  2142 ;; This function uses a non-reentrant model
  2143 ;;
  2144                           
  2145                           	psect	text0
  2146  00077E                     __ptext0:
  2147                           	opt callstack 0
  2148  00077E                     _main:
  2149                           	opt callstack 21
  2150  00077E                     
  2151                           ;main.c: 29:     SYSTEM_Initialize();
  2152  00077E  ECC1  F004         	call	_SYSTEM_Initialize	;wreg free
  2153  000782                     
  2154                           ;main.c: 30:     SPI_Open(SPI_DEFAULT);
  2155  000782  0E00               	movlw	0
  2156  000784  EC26  F003         	call	_SPI_Open
  2157  000788                     
  2158                           ;main.c: 31:     lcd_init();
  2159  000788  EC21  F000         	call	_lcd_init	;wreg free
  2160  00078C                     
  2161                           ;main.c: 34:     IOCB4_SetInterruptHandler(IOCB4_InterruptCall);
  2162  00078C  0E30               	movlw	low _IOCB4_InterruptCall
  2163  00078E  6E03               	movwf	IOCB4_SetInterruptHandler@InterruptHandler^0,c
  2164  000790  0E0A               	movlw	high _IOCB4_InterruptCall
  2165  000792  6E04               	movwf	(IOCB4_SetInterruptHandler@InterruptHandler+1)^0,c
  2166  000794  EC21  F005         	call	_IOCB4_SetInterruptHandler	;wreg free
  2167  000798                     
  2168                           ;main.c: 37:     (INTCONbits.GIE = 1);
  2169  000798  8EF2               	bsf	242,7,c	;volatile
  2170  00079A                     
  2171                           ;main.c: 48:     lcd_draw_string(120,200,"HELLO WORLD",0xFFFF,0x0000);
  2172  00079A  0E00               	movlw	0
  2173  00079C  6E23               	movwf	(lcd_draw_string@x+1)^0,c
  2174  00079E  0E78               	movlw	120
  2175  0007A0  6E22               	movwf	lcd_draw_string@x^0,c
  2176  0007A2  0E00               	movlw	0
  2177  0007A4  6E25               	movwf	(lcd_draw_string@y+1)^0,c
  2178  0007A6  0EC8               	movlw	200
  2179  0007A8  6E24               	movwf	lcd_draw_string@y^0,c
  2180  0007AA  0EF3               	movlw	low STR_1
  2181  0007AC  6E26               	movwf	lcd_draw_string@pS^0,c
  2182  0007AE  0EFF               	movlw	high STR_1
  2183  0007B0  6E27               	movwf	(lcd_draw_string@pS+1)^0,c
  2184  0007B2  0EFF               	movlw	255
  2185  0007B4  6E29               	movwf	(lcd_draw_string@fg_color+1)^0,c
  2186  0007B6  6828               	setf	lcd_draw_string@fg_color^0,c
  2187  0007B8  0E00               	movlw	0
  2188  0007BA  6E2B               	movwf	(lcd_draw_string@bg_color+1)^0,c
  2189  0007BC  0E00               	movlw	0
  2190  0007BE  6E2A               	movwf	lcd_draw_string@bg_color^0,c
  2191  0007C0  ECA1  F002         	call	_lcd_draw_string	;wreg free
  2192  0007C4                     l273:
  2193  0007C4  EFE2  F003         	goto	l273
  2194  0007C8  EF1F  F000         	goto	start
  2195  0007CC                     __end_of_main:
  2196                           	opt callstack 0
  2197                           
  2198 ;; *************** function _lcd_init *****************
  2199 ;; Defined at:
  2200 ;;		line 34 in file "lib_ili9341.c"
  2201 ;; Parameters:    Size  Location     Type
  2202 ;;		None
  2203 ;; Auto vars:     Size  Location     Type
  2204 ;;		None
  2205 ;; Return value:  Size  Location     Type
  2206 ;;                  1    wreg      void 
  2207 ;; Registers used:
  2208 ;;		wreg, status,2, status,0, cstack
  2209 ;; Tracked objects:
  2210 ;;		On entry : 0/0
  2211 ;;		On exit  : 0/0
  2212 ;;		Unchanged: 0/0
  2213 ;; Data sizes:     COMRAM   BANK0   BANK1   BANK2   BANK3   BANK4   BANK5   BANK6   BANK7   BANK8   BANK9  BANK10  BANK1
      +1  BANK12  BANK13  BANK14
  2214 ;;      Params:         0       0       0       0       0       0       0       0       0       0       0       0       
      +0       0       0       0
  2215 ;;      Locals:         0       0       0       0       0       0       0       0       0       0       0       0       
      +0       0       0       0
  2216 ;;      Temps:          0       0       0       0       0       0       0       0       0       0       0       0       
      +0       0       0       0
  2217 ;;      Totals:         0       0       0       0       0       0       0       0       0       0       0       0       
      +0       0       0       0
  2218 ;;Total ram usage:        0 bytes
  2219 ;; Hardware stack levels used:    1
  2220 ;; Hardware stack levels required when called:    9
  2221 ;; This function calls:
  2222 ;;		_lcd_fill
  2223 ;;		_lcd_send
  2224 ;;		_msDelay
  2225 ;; This function is called by:
  2226 ;;		_main
  2227 ;; This function uses a non-reentrant model
  2228 ;;
  2229                           
  2230                           	psect	text1
  2231  000042                     __ptext1:
  2232                           	opt callstack 0
  2233  000042                     _lcd_init:
  2234                           	opt callstack 21
  2235  000042                     
  2236                           ;lib_ili9341.c: 37:     lcd_send(0, 0x01);
  2237  000042  0E01               	movlw	1
  2238  000044  6E04               	movwf	lcd_send@value^0,c
  2239  000046  0E00               	movlw	0
  2240  000048  ECCE  F004         	call	_lcd_send
  2241  00004C                     
  2242                           ;lib_ili9341.c: 38:     msDelay(150);
  2243  00004C  0E96               	movlw	150
  2244  00004E  EC72  F004         	call	_msDelay
  2245  000052                     
  2246                           ;lib_ili9341.c: 40:     lcd_send(0,0xEF);
  2247  000052  0EEF               	movlw	239
  2248  000054  6E04               	movwf	lcd_send@value^0,c
  2249  000056  0E00               	movlw	0
  2250  000058  ECCE  F004         	call	_lcd_send
  2251  00005C                     
  2252                           ;lib_ili9341.c: 41:     lcd_send(1,0x03);
  2253  00005C  0E03               	movlw	3
  2254  00005E  6E04               	movwf	lcd_send@value^0,c
  2255  000060  0E01               	movlw	1
  2256  000062  ECCE  F004         	call	_lcd_send
  2257  000066                     
  2258                           ;lib_ili9341.c: 42:     lcd_send(1,0x80);
  2259  000066  0E80               	movlw	128
  2260  000068  6E04               	movwf	lcd_send@value^0,c
  2261  00006A  0E01               	movlw	1
  2262  00006C  ECCE  F004         	call	_lcd_send
  2263  000070                     
  2264                           ;lib_ili9341.c: 43:     lcd_send(1,0x02);
  2265  000070  0E02               	movlw	2
  2266  000072  6E04               	movwf	lcd_send@value^0,c
  2267  000074  0E01               	movlw	1
  2268  000076  ECCE  F004         	call	_lcd_send
  2269  00007A                     
  2270                           ;lib_ili9341.c: 44:     lcd_send(0,0xCF);
  2271  00007A  0ECF               	movlw	207
  2272  00007C  6E04               	movwf	lcd_send@value^0,c
  2273  00007E  0E00               	movlw	0
  2274  000080  ECCE  F004         	call	_lcd_send
  2275  000084                     
  2276                           ;lib_ili9341.c: 45:     lcd_send(1,0x00);
  2277  000084  0E00               	movlw	0
  2278  000086  6E04               	movwf	lcd_send@value^0,c
  2279  000088  0E01               	movlw	1
  2280  00008A  ECCE  F004         	call	_lcd_send
  2281  00008E                     
  2282                           ;lib_ili9341.c: 46:     lcd_send(1,0XC1);
  2283  00008E  0EC1               	movlw	193
  2284  000090  6E04               	movwf	lcd_send@value^0,c
  2285  000092  0E01               	movlw	1
  2286  000094  ECCE  F004         	call	_lcd_send
  2287  000098                     
  2288                           ;lib_ili9341.c: 47:     lcd_send(1,0X30);
  2289  000098  0E30               	movlw	48
  2290  00009A  6E04               	movwf	lcd_send@value^0,c
  2291  00009C  0E01               	movlw	1
  2292  00009E  ECCE  F004         	call	_lcd_send
  2293  0000A2                     
  2294                           ;lib_ili9341.c: 48:     lcd_send(0,0xED);
  2295  0000A2  0EED               	movlw	237
  2296  0000A4  6E04               	movwf	lcd_send@value^0,c
  2297  0000A6  0E00               	movlw	0
  2298  0000A8  ECCE  F004         	call	_lcd_send
  2299  0000AC                     
  2300                           ;lib_ili9341.c: 49:     lcd_send(1,0x64);
  2301  0000AC  0E64               	movlw	100
  2302  0000AE  6E04               	movwf	lcd_send@value^0,c
  2303  0000B0  0E01               	movlw	1
  2304  0000B2  ECCE  F004         	call	_lcd_send
  2305  0000B6                     
  2306                           ;lib_ili9341.c: 50:     lcd_send(1,0x03);
  2307  0000B6  0E03               	movlw	3
  2308  0000B8  6E04               	movwf	lcd_send@value^0,c
  2309  0000BA  0E01               	movlw	1
  2310  0000BC  ECCE  F004         	call	_lcd_send
  2311  0000C0                     
  2312                           ;lib_ili9341.c: 51:     lcd_send(1,0X12);
  2313  0000C0  0E12               	movlw	18
  2314  0000C2  6E04               	movwf	lcd_send@value^0,c
  2315  0000C4  0E01               	movlw	1
  2316  0000C6  ECCE  F004         	call	_lcd_send
  2317  0000CA                     
  2318                           ;lib_ili9341.c: 52:     lcd_send(1,0X81);
  2319  0000CA  0E81               	movlw	129
  2320  0000CC  6E04               	movwf	lcd_send@value^0,c
  2321  0000CE  0E01               	movlw	1
  2322  0000D0  ECCE  F004         	call	_lcd_send
  2323  0000D4                     
  2324                           ;lib_ili9341.c: 53:     lcd_send(0,0xE8);
  2325  0000D4  0EE8               	movlw	232
  2326  0000D6  6E04               	movwf	lcd_send@value^0,c
  2327  0000D8  0E00               	movlw	0
  2328  0000DA  ECCE  F004         	call	_lcd_send
  2329  0000DE                     
  2330                           ;lib_ili9341.c: 54:     lcd_send(1,0x85);
  2331  0000DE  0E85               	movlw	133
  2332  0000E0  6E04               	movwf	lcd_send@value^0,c
  2333  0000E2  0E01               	movlw	1
  2334  0000E4  ECCE  F004         	call	_lcd_send
  2335  0000E8                     
  2336                           ;lib_ili9341.c: 55:     lcd_send(1,0x00);
  2337  0000E8  0E00               	movlw	0
  2338  0000EA  6E04               	movwf	lcd_send@value^0,c
  2339  0000EC  0E01               	movlw	1
  2340  0000EE  ECCE  F004         	call	_lcd_send
  2341  0000F2                     
  2342                           ;lib_ili9341.c: 56:     lcd_send(1,0x78);
  2343  0000F2  0E78               	movlw	120
  2344  0000F4  6E04               	movwf	lcd_send@value^0,c
  2345  0000F6  0E01               	movlw	1
  2346  0000F8  ECCE  F004         	call	_lcd_send
  2347  0000FC                     
  2348                           ;lib_ili9341.c: 57:     lcd_send(0,0xCB);
  2349  0000FC  0ECB               	movlw	203
  2350  0000FE  6E04               	movwf	lcd_send@value^0,c
  2351  000100  0E00               	movlw	0
  2352  000102  ECCE  F004         	call	_lcd_send
  2353  000106                     
  2354                           ;lib_ili9341.c: 58:     lcd_send(1,0x39);
  2355  000106  0E39               	movlw	57
  2356  000108  6E04               	movwf	lcd_send@value^0,c
  2357  00010A  0E01               	movlw	1
  2358  00010C  ECCE  F004         	call	_lcd_send
  2359  000110                     
  2360                           ;lib_ili9341.c: 59:     lcd_send(1,0x2C);
  2361  000110  0E2C               	movlw	44
  2362  000112  6E04               	movwf	lcd_send@value^0,c
  2363  000114  0E01               	movlw	1
  2364  000116  ECCE  F004         	call	_lcd_send
  2365  00011A                     
  2366                           ;lib_ili9341.c: 60:     lcd_send(1,0x00);
  2367  00011A  0E00               	movlw	0
  2368  00011C  6E04               	movwf	lcd_send@value^0,c
  2369  00011E  0E01               	movlw	1
  2370  000120  ECCE  F004         	call	_lcd_send
  2371  000124                     
  2372                           ;lib_ili9341.c: 61:     lcd_send(1,0x34);
  2373  000124  0E34               	movlw	52
  2374  000126  6E04               	movwf	lcd_send@value^0,c
  2375  000128  0E01               	movlw	1
  2376  00012A  ECCE  F004         	call	_lcd_send
  2377  00012E                     
  2378                           ;lib_ili9341.c: 62:     lcd_send(1,0x02);
  2379  00012E  0E02               	movlw	2
  2380  000130  6E04               	movwf	lcd_send@value^0,c
  2381  000132  0E01               	movlw	1
  2382  000134  ECCE  F004         	call	_lcd_send
  2383  000138                     
  2384                           ;lib_ili9341.c: 63:     lcd_send(0,0xF7);
  2385  000138  0EF7               	movlw	247
  2386  00013A  6E04               	movwf	lcd_send@value^0,c
  2387  00013C  0E00               	movlw	0
  2388  00013E  ECCE  F004         	call	_lcd_send
  2389  000142                     
  2390                           ;lib_ili9341.c: 64:     lcd_send(1,0x20);
  2391  000142  0E20               	movlw	32
  2392  000144  6E04               	movwf	lcd_send@value^0,c
  2393  000146  0E01               	movlw	1
  2394  000148  ECCE  F004         	call	_lcd_send
  2395  00014C                     
  2396                           ;lib_ili9341.c: 65:     lcd_send(0,0xEA);
  2397  00014C  0EEA               	movlw	234
  2398  00014E  6E04               	movwf	lcd_send@value^0,c
  2399  000150  0E00               	movlw	0
  2400  000152  ECCE  F004         	call	_lcd_send
  2401  000156                     
  2402                           ;lib_ili9341.c: 66:     lcd_send(1,0x00);
  2403  000156  0E00               	movlw	0
  2404  000158  6E04               	movwf	lcd_send@value^0,c
  2405  00015A  0E01               	movlw	1
  2406  00015C  ECCE  F004         	call	_lcd_send
  2407  000160                     
  2408                           ;lib_ili9341.c: 67:     lcd_send(1,0x00);
  2409  000160  0E00               	movlw	0
  2410  000162  6E04               	movwf	lcd_send@value^0,c
  2411  000164  0E01               	movlw	1
  2412  000166  ECCE  F004         	call	_lcd_send
  2413  00016A                     
  2414                           ;lib_ili9341.c: 68:     lcd_send(0,0xC0);
  2415  00016A  0EC0               	movlw	192
  2416  00016C  6E04               	movwf	lcd_send@value^0,c
  2417  00016E  0E00               	movlw	0
  2418  000170  ECCE  F004         	call	_lcd_send
  2419  000174                     
  2420                           ;lib_ili9341.c: 69:     lcd_send(1,0x23);
  2421  000174  0E23               	movlw	35
  2422  000176  6E04               	movwf	lcd_send@value^0,c
  2423  000178  0E01               	movlw	1
  2424  00017A  ECCE  F004         	call	_lcd_send
  2425  00017E                     
  2426                           ;lib_ili9341.c: 70:     lcd_send(0,0xC1);
  2427  00017E  0EC1               	movlw	193
  2428  000180  6E04               	movwf	lcd_send@value^0,c
  2429  000182  0E00               	movlw	0
  2430  000184  ECCE  F004         	call	_lcd_send
  2431  000188                     
  2432                           ;lib_ili9341.c: 71:     lcd_send(1,0x10);
  2433  000188  0E10               	movlw	16
  2434  00018A  6E04               	movwf	lcd_send@value^0,c
  2435  00018C  0E01               	movlw	1
  2436  00018E  ECCE  F004         	call	_lcd_send
  2437  000192                     
  2438                           ;lib_ili9341.c: 72:     lcd_send(0,0xC5);
  2439  000192  0EC5               	movlw	197
  2440  000194  6E04               	movwf	lcd_send@value^0,c
  2441  000196  0E00               	movlw	0
  2442  000198  ECCE  F004         	call	_lcd_send
  2443  00019C                     
  2444                           ;lib_ili9341.c: 73:     lcd_send(1,0x3e);
  2445  00019C  0E3E               	movlw	62
  2446  00019E  6E04               	movwf	lcd_send@value^0,c
  2447  0001A0  0E01               	movlw	1
  2448  0001A2  ECCE  F004         	call	_lcd_send
  2449  0001A6                     
  2450                           ;lib_ili9341.c: 74:     lcd_send(1,0x28);
  2451  0001A6  0E28               	movlw	40
  2452  0001A8  6E04               	movwf	lcd_send@value^0,c
  2453  0001AA  0E01               	movlw	1
  2454  0001AC  ECCE  F004         	call	_lcd_send
  2455  0001B0                     
  2456                           ;lib_ili9341.c: 75:     lcd_send(0,0xC7);
  2457  0001B0  0EC7               	movlw	199
  2458  0001B2  6E04               	movwf	lcd_send@value^0,c
  2459  0001B4  0E00               	movlw	0
  2460  0001B6  ECCE  F004         	call	_lcd_send
  2461  0001BA                     
  2462                           ;lib_ili9341.c: 76:     lcd_send(1,0x86);
  2463  0001BA  0E86               	movlw	134
  2464  0001BC  6E04               	movwf	lcd_send@value^0,c
  2465  0001BE  0E01               	movlw	1
  2466  0001C0  ECCE  F004         	call	_lcd_send
  2467  0001C4                     
  2468                           ;lib_ili9341.c: 77:     lcd_send(0,0x36);
  2469  0001C4  0E36               	movlw	54
  2470  0001C6  6E04               	movwf	lcd_send@value^0,c
  2471  0001C8  0E00               	movlw	0
  2472  0001CA  ECCE  F004         	call	_lcd_send
  2473  0001CE                     
  2474                           ;lib_ili9341.c: 78:     lcd_send(1,0x48);
  2475  0001CE  0E48               	movlw	72
  2476  0001D0  6E04               	movwf	lcd_send@value^0,c
  2477  0001D2  0E01               	movlw	1
  2478  0001D4  ECCE  F004         	call	_lcd_send
  2479  0001D8                     
  2480                           ;lib_ili9341.c: 79:     lcd_send(0,0x3A);
  2481  0001D8  0E3A               	movlw	58
  2482  0001DA  6E04               	movwf	lcd_send@value^0,c
  2483  0001DC  0E00               	movlw	0
  2484  0001DE  ECCE  F004         	call	_lcd_send
  2485  0001E2                     
  2486                           ;lib_ili9341.c: 80:     lcd_send(1,0x55);
  2487  0001E2  0E55               	movlw	85
  2488  0001E4  6E04               	movwf	lcd_send@value^0,c
  2489  0001E6  0E01               	movlw	1
  2490  0001E8  ECCE  F004         	call	_lcd_send
  2491  0001EC                     
  2492                           ;lib_ili9341.c: 81:     lcd_send(0,0xB1);
  2493  0001EC  0EB1               	movlw	177
  2494  0001EE  6E04               	movwf	lcd_send@value^0,c
  2495  0001F0  0E00               	movlw	0
  2496  0001F2  ECCE  F004         	call	_lcd_send
  2497  0001F6                     
  2498                           ;lib_ili9341.c: 82:     lcd_send(1,0x00);
  2499  0001F6  0E00               	movlw	0
  2500  0001F8  6E04               	movwf	lcd_send@value^0,c
  2501  0001FA  0E01               	movlw	1
  2502  0001FC  ECCE  F004         	call	_lcd_send
  2503  000200                     
  2504                           ;lib_ili9341.c: 83:     lcd_send(1,0x18);
  2505  000200  0E18               	movlw	24
  2506  000202  6E04               	movwf	lcd_send@value^0,c
  2507  000204  0E01               	movlw	1
  2508  000206  ECCE  F004         	call	_lcd_send
  2509  00020A                     
  2510                           ;lib_ili9341.c: 84:     lcd_send(0,0xB6);
  2511  00020A  0EB6               	movlw	182
  2512  00020C  6E04               	movwf	lcd_send@value^0,c
  2513  00020E  0E00               	movlw	0
  2514  000210  ECCE  F004         	call	_lcd_send
  2515  000214                     
  2516                           ;lib_ili9341.c: 85:     lcd_send(1,0x08);
  2517  000214  0E08               	movlw	8
  2518  000216  6E04               	movwf	lcd_send@value^0,c
  2519  000218  0E01               	movlw	1
  2520  00021A  ECCE  F004         	call	_lcd_send
  2521  00021E                     
  2522                           ;lib_ili9341.c: 86:     lcd_send(1,0x82);
  2523  00021E  0E82               	movlw	130
  2524  000220  6E04               	movwf	lcd_send@value^0,c
  2525  000222  0E01               	movlw	1
  2526  000224  ECCE  F004         	call	_lcd_send
  2527  000228                     
  2528                           ;lib_ili9341.c: 87:     lcd_send(1,0x27);
  2529  000228  0E27               	movlw	39
  2530  00022A  6E04               	movwf	lcd_send@value^0,c
  2531  00022C  0E01               	movlw	1
  2532  00022E  ECCE  F004         	call	_lcd_send
  2533  000232                     
  2534                           ;lib_ili9341.c: 88:     lcd_send(0,0xF2);
  2535  000232  0EF2               	movlw	242
  2536  000234  6E04               	movwf	lcd_send@value^0,c
  2537  000236  0E00               	movlw	0
  2538  000238  ECCE  F004         	call	_lcd_send
  2539  00023C                     
  2540                           ;lib_ili9341.c: 89:     lcd_send(1,0x00);
  2541  00023C  0E00               	movlw	0
  2542  00023E  6E04               	movwf	lcd_send@value^0,c
  2543  000240  0E01               	movlw	1
  2544  000242  ECCE  F004         	call	_lcd_send
  2545  000246                     
  2546                           ;lib_ili9341.c: 90:     lcd_send(0,0x26);
  2547  000246  0E26               	movlw	38
  2548  000248  6E04               	movwf	lcd_send@value^0,c
  2549  00024A  0E00               	movlw	0
  2550  00024C  ECCE  F004         	call	_lcd_send
  2551  000250                     
  2552                           ;lib_ili9341.c: 91:     lcd_send(1,0x01);
  2553  000250  0E01               	movlw	1
  2554  000252  6E04               	movwf	lcd_send@value^0,c
  2555  000254  0E01               	movlw	1
  2556  000256  ECCE  F004         	call	_lcd_send
  2557  00025A                     
  2558                           ;lib_ili9341.c: 92:     lcd_send(0,0xE0);
  2559  00025A  0EE0               	movlw	224
  2560  00025C  6E04               	movwf	lcd_send@value^0,c
  2561  00025E  0E00               	movlw	0
  2562  000260  ECCE  F004         	call	_lcd_send
  2563  000264                     
  2564                           ;lib_ili9341.c: 93:     lcd_send(1,0x0F);
  2565  000264  0E0F               	movlw	15
  2566  000266  6E04               	movwf	lcd_send@value^0,c
  2567  000268  0E01               	movlw	1
  2568  00026A  ECCE  F004         	call	_lcd_send
  2569  00026E                     
  2570                           ;lib_ili9341.c: 94:     lcd_send(1,0x31);
  2571  00026E  0E31               	movlw	49
  2572  000270  6E04               	movwf	lcd_send@value^0,c
  2573  000272  0E01               	movlw	1
  2574  000274  ECCE  F004         	call	_lcd_send
  2575  000278                     
  2576                           ;lib_ili9341.c: 95:     lcd_send(1,0x2B);
  2577  000278  0E2B               	movlw	43
  2578  00027A  6E04               	movwf	lcd_send@value^0,c
  2579  00027C  0E01               	movlw	1
  2580  00027E  ECCE  F004         	call	_lcd_send
  2581  000282                     
  2582                           ;lib_ili9341.c: 96:     lcd_send(1,0x0C);
  2583  000282  0E0C               	movlw	12
  2584  000284  6E04               	movwf	lcd_send@value^0,c
  2585  000286  0E01               	movlw	1
  2586  000288  ECCE  F004         	call	_lcd_send
  2587  00028C                     
  2588                           ;lib_ili9341.c: 97:     lcd_send(1,0x0E);
  2589  00028C  0E0E               	movlw	14
  2590  00028E  6E04               	movwf	lcd_send@value^0,c
  2591  000290  0E01               	movlw	1
  2592  000292  ECCE  F004         	call	_lcd_send
  2593  000296                     
  2594                           ;lib_ili9341.c: 98:     lcd_send(1,0x08);
  2595  000296  0E08               	movlw	8
  2596  000298  6E04               	movwf	lcd_send@value^0,c
  2597  00029A  0E01               	movlw	1
  2598  00029C  ECCE  F004         	call	_lcd_send
  2599  0002A0                     
  2600                           ;lib_ili9341.c: 99:     lcd_send(1,0x4E);
  2601  0002A0  0E4E               	movlw	78
  2602  0002A2  6E04               	movwf	lcd_send@value^0,c
  2603  0002A4  0E01               	movlw	1
  2604  0002A6  ECCE  F004         	call	_lcd_send
  2605  0002AA                     
  2606                           ;lib_ili9341.c: 100:     lcd_send(1,0xF1);
  2607  0002AA  0EF1               	movlw	241
  2608  0002AC  6E04               	movwf	lcd_send@value^0,c
  2609  0002AE  0E01               	movlw	1
  2610  0002B0  ECCE  F004         	call	_lcd_send
  2611  0002B4                     
  2612                           ;lib_ili9341.c: 101:     lcd_send(1,0x37);
  2613  0002B4  0E37               	movlw	55
  2614  0002B6  6E04               	movwf	lcd_send@value^0,c
  2615  0002B8  0E01               	movlw	1
  2616  0002BA  ECCE  F004         	call	_lcd_send
  2617  0002BE                     
  2618                           ;lib_ili9341.c: 102:     lcd_send(1,0x07);
  2619  0002BE  0E07               	movlw	7
  2620  0002C0  6E04               	movwf	lcd_send@value^0,c
  2621  0002C2  0E01               	movlw	1
  2622  0002C4  ECCE  F004         	call	_lcd_send
  2623  0002C8                     
  2624                           ;lib_ili9341.c: 103:     lcd_send(1,0x10);
  2625  0002C8  0E10               	movlw	16
  2626  0002CA  6E04               	movwf	lcd_send@value^0,c
  2627  0002CC  0E01               	movlw	1
  2628  0002CE  ECCE  F004         	call	_lcd_send
  2629  0002D2                     
  2630                           ;lib_ili9341.c: 104:     lcd_send(1,0x03);
  2631  0002D2  0E03               	movlw	3
  2632  0002D4  6E04               	movwf	lcd_send@value^0,c
  2633  0002D6  0E01               	movlw	1
  2634  0002D8  ECCE  F004         	call	_lcd_send
  2635  0002DC                     
  2636                           ;lib_ili9341.c: 105:     lcd_send(1,0x0E);
  2637  0002DC  0E0E               	movlw	14
  2638  0002DE  6E04               	movwf	lcd_send@value^0,c
  2639  0002E0  0E01               	movlw	1
  2640  0002E2  ECCE  F004         	call	_lcd_send
  2641  0002E6                     
  2642                           ;lib_ili9341.c: 106:     lcd_send(1,0x09);
  2643  0002E6  0E09               	movlw	9
  2644  0002E8  6E04               	movwf	lcd_send@value^0,c
  2645  0002EA  0E01               	movlw	1
  2646  0002EC  ECCE  F004         	call	_lcd_send
  2647  0002F0                     
  2648                           ;lib_ili9341.c: 107:     lcd_send(1,0x00);
  2649  0002F0  0E00               	movlw	0
  2650  0002F2  6E04               	movwf	lcd_send@value^0,c
  2651  0002F4  0E01               	movlw	1
  2652  0002F6  ECCE  F004         	call	_lcd_send
  2653  0002FA                     
  2654                           ;lib_ili9341.c: 108:     lcd_send(0,0xE1);
  2655  0002FA  0EE1               	movlw	225
  2656  0002FC  6E04               	movwf	lcd_send@value^0,c
  2657  0002FE  0E00               	movlw	0
  2658  000300  ECCE  F004         	call	_lcd_send
  2659  000304                     
  2660                           ;lib_ili9341.c: 109:     lcd_send(1,0x00);
  2661  000304  0E00               	movlw	0
  2662  000306  6E04               	movwf	lcd_send@value^0,c
  2663  000308  0E01               	movlw	1
  2664  00030A  ECCE  F004         	call	_lcd_send
  2665  00030E                     
  2666                           ;lib_ili9341.c: 110:     lcd_send(1,0x0E);
  2667  00030E  0E0E               	movlw	14
  2668  000310  6E04               	movwf	lcd_send@value^0,c
  2669  000312  0E01               	movlw	1
  2670  000314  ECCE  F004         	call	_lcd_send
  2671  000318                     
  2672                           ;lib_ili9341.c: 111:     lcd_send(1,0x14);
  2673  000318  0E14               	movlw	20
  2674  00031A  6E04               	movwf	lcd_send@value^0,c
  2675  00031C  0E01               	movlw	1
  2676  00031E  ECCE  F004         	call	_lcd_send
  2677  000322                     
  2678                           ;lib_ili9341.c: 112:     lcd_send(1,0x03);
  2679  000322  0E03               	movlw	3
  2680  000324  6E04               	movwf	lcd_send@value^0,c
  2681  000326  0E01               	movlw	1
  2682  000328  ECCE  F004         	call	_lcd_send
  2683  00032C                     
  2684                           ;lib_ili9341.c: 113:     lcd_send(1,0x11);
  2685  00032C  0E11               	movlw	17
  2686  00032E  6E04               	movwf	lcd_send@value^0,c
  2687  000330  0E01               	movlw	1
  2688  000332  ECCE  F004         	call	_lcd_send
  2689  000336                     
  2690                           ;lib_ili9341.c: 114:     lcd_send(1,0x07);
  2691  000336  0E07               	movlw	7
  2692  000338  6E04               	movwf	lcd_send@value^0,c
  2693  00033A  0E01               	movlw	1
  2694  00033C  ECCE  F004         	call	_lcd_send
  2695  000340                     
  2696                           ;lib_ili9341.c: 115:     lcd_send(1,0x31);
  2697  000340  0E31               	movlw	49
  2698  000342  6E04               	movwf	lcd_send@value^0,c
  2699  000344  0E01               	movlw	1
  2700  000346  ECCE  F004         	call	_lcd_send
  2701  00034A                     
  2702                           ;lib_ili9341.c: 116:     lcd_send(1,0xC1);
  2703  00034A  0EC1               	movlw	193
  2704  00034C  6E04               	movwf	lcd_send@value^0,c
  2705  00034E  0E01               	movlw	1
  2706  000350  ECCE  F004         	call	_lcd_send
  2707  000354                     
  2708                           ;lib_ili9341.c: 117:     lcd_send(1,0x48);
  2709  000354  0E48               	movlw	72
  2710  000356  6E04               	movwf	lcd_send@value^0,c
  2711  000358  0E01               	movlw	1
  2712  00035A  ECCE  F004         	call	_lcd_send
  2713  00035E                     
  2714                           ;lib_ili9341.c: 118:     lcd_send(1,0x08);
  2715  00035E  0E08               	movlw	8
  2716  000360  6E04               	movwf	lcd_send@value^0,c
  2717  000362  0E01               	movlw	1
  2718  000364  ECCE  F004         	call	_lcd_send
  2719  000368                     
  2720                           ;lib_ili9341.c: 119:     lcd_send(1,0x0F);
  2721  000368  0E0F               	movlw	15
  2722  00036A  6E04               	movwf	lcd_send@value^0,c
  2723  00036C  0E01               	movlw	1
  2724  00036E  ECCE  F004         	call	_lcd_send
  2725  000372                     
  2726                           ;lib_ili9341.c: 120:     lcd_send(1,0x0C);
  2727  000372  0E0C               	movlw	12
  2728  000374  6E04               	movwf	lcd_send@value^0,c
  2729  000376  0E01               	movlw	1
  2730  000378  ECCE  F004         	call	_lcd_send
  2731  00037C                     
  2732                           ;lib_ili9341.c: 121:     lcd_send(1,0x31);
  2733  00037C  0E31               	movlw	49
  2734  00037E  6E04               	movwf	lcd_send@value^0,c
  2735  000380  0E01               	movlw	1
  2736  000382  ECCE  F004         	call	_lcd_send
  2737  000386                     
  2738                           ;lib_ili9341.c: 122:     lcd_send(1,0x36);
  2739  000386  0E36               	movlw	54
  2740  000388  6E04               	movwf	lcd_send@value^0,c
  2741  00038A  0E01               	movlw	1
  2742  00038C  ECCE  F004         	call	_lcd_send
  2743  000390                     
  2744                           ;lib_ili9341.c: 123:     lcd_send(1,0x0F);
  2745  000390  0E0F               	movlw	15
  2746  000392  6E04               	movwf	lcd_send@value^0,c
  2747  000394  0E01               	movlw	1
  2748  000396  ECCE  F004         	call	_lcd_send
  2749  00039A                     
  2750                           ;lib_ili9341.c: 124:     lcd_send(0,0x11);
  2751  00039A  0E11               	movlw	17
  2752  00039C  6E04               	movwf	lcd_send@value^0,c
  2753  00039E  0E00               	movlw	0
  2754  0003A0  ECCE  F004         	call	_lcd_send
  2755                           
  2756                           ;lib_ili9341.c: 125:     msDelay(120);
  2757  0003A4  0E78               	movlw	120
  2758  0003A6  EC72  F004         	call	_msDelay
  2759  0003AA                     
  2760                           ;lib_ili9341.c: 126:     lcd_send(0,0x29);
  2761  0003AA  0E29               	movlw	41
  2762  0003AC  6E04               	movwf	lcd_send@value^0,c
  2763  0003AE  0E00               	movlw	0
  2764  0003B0  ECCE  F004         	call	_lcd_send
  2765  0003B4                     
  2766                           ;lib_ili9341.c: 127:     msDelay(120);
  2767  0003B4  0E78               	movlw	120
  2768  0003B6  EC72  F004         	call	_msDelay
  2769  0003BA                     
  2770                           ;lib_ili9341.c: 130:     lcd_fill(global_bg_color);
  2771  0003BA  0E00               	movlw	0
  2772  0003BC  6E0D               	movwf	(lcd_fill@bg_color+1)^0,c
  2773  0003BE  0E00               	movlw	0
  2774  0003C0  6E0C               	movwf	lcd_fill@bg_color^0,c
  2775  0003C2  EC7E  F003         	call	_lcd_fill	;wreg free
  2776  0003C6  0012               	return		;funcret
  2777  0003C8                     __end_of_lcd_init:
  2778                           	opt callstack 0
  2779                           
  2780 ;; *************** function _msDelay *****************
  2781 ;; Defined at:
  2782 ;;		line 16 in file "lib_ili9341.c"
  2783 ;; Parameters:    Size  Location     Type
  2784 ;;  ms              1    wreg     unsigned char 
  2785 ;; Auto vars:     Size  Location     Type
  2786 ;;  ms              1    3[COMRAM] unsigned char 
  2787 ;;  k               1    4[COMRAM] unsigned char 
  2788 ;; Return value:  Size  Location     Type
  2789 ;;                  1    wreg      void 
  2790 ;; Registers used:
  2791 ;;		wreg, status,2, status,0
  2792 ;; Tracked objects:
  2793 ;;		On entry : 0/0
  2794 ;;		On exit  : 0/0
  2795 ;;		Unchanged: 0/0
  2796 ;; Data sizes:     COMRAM   BANK0   BANK1   BANK2   BANK3   BANK4   BANK5   BANK6   BANK7   BANK8   BANK9  BANK10  BANK1
      +1  BANK12  BANK13  BANK14
  2797 ;;      Params:         0       0       0       0       0       0       0       0       0       0       0       0       
      +0       0       0       0
  2798 ;;      Locals:         2       0       0       0       0       0       0       0       0       0       0       0       
      +0       0       0       0
  2799 ;;      Temps:          1       0       0       0       0       0       0       0       0       0       0       0       
      +0       0       0       0
  2800 ;;      Totals:         3       0       0       0       0       0       0       0       0       0       0       0       
      +0       0       0       0
  2801 ;;Total ram usage:        3 bytes
  2802 ;; Hardware stack levels used:    1
  2803 ;; Hardware stack levels required when called:    4
  2804 ;; This function calls:
  2805 ;;		Nothing
  2806 ;; This function is called by:
  2807 ;;		_lcd_init
  2808 ;; This function uses a non-reentrant model
  2809 ;;
  2810                           
  2811                           	psect	text2
  2812  0008E4                     __ptext2:
  2813                           	opt callstack 0
  2814  0008E4                     _msDelay:
  2815                           	opt callstack 25
  2816                           
  2817                           ;incstack = 0
  2818                           ;msDelay@ms stored from wreg
  2819  0008E4  6E04               	movwf	msDelay@ms^0,c
  2820  0008E6                     
  2821                           ;lib_ili9341.c: 16: void msDelay (uint8_t ms);lib_ili9341.c: 17: {;lib_ili9341.c: 18:   
      +                            uint8_t k;;lib_ili9341.c: 20:     for(k=0; k<ms; k++)
  2822  0008E6  0E00               	movlw	0
  2823  0008E8  6E05               	movwf	msDelay@k^0,c
  2824  0008EA  EF7F  F004         	goto	l1191
  2825  0008EE                     l1187:
  2826                           
  2827                           ;lib_ili9341.c: 21:     {;lib_ili9341.c: 22:         _delay((unsigned long)((1)*(8000000
      +                          /4000.0)));
  2828  0008EE  0E03               	movlw	3
  2829  0008F0  6E03               	movwf	??_msDelay^0,c
  2830  0008F2  0E98               	movlw	152
  2831  0008F4                     u857:
  2832  0008F4  2EE8               	decfsz	wreg,f,c
  2833  0008F6  D7FE               	bra	u857
  2834  0008F8  2E03               	decfsz	??_msDelay^0,f,c
  2835  0008FA  D7FC               	bra	u857
  2836  0008FC                     
  2837                           ;lib_ili9341.c: 23:     }
  2838  0008FC  2A05               	incf	msDelay@k^0,f,c
  2839  0008FE                     l1191:
  2840  0008FE  5004               	movf	msDelay@ms^0,w,c
  2841  000900  5C05               	subwf	msDelay@k^0,w,c
  2842  000902  A0D8               	btfss	status,0,c
  2843  000904  EF86  F004         	goto	u101
  2844  000908  EF88  F004         	goto	u100
  2845  00090C                     u101:
  2846  00090C  EF77  F004         	goto	l1187
  2847  000910                     u100:
  2848  000910  0012               	return		;funcret
  2849  000912                     __end_of_msDelay:
  2850                           	opt callstack 0
  2851                           
  2852 ;; *************** function _lcd_fill *****************
  2853 ;; Defined at:
  2854 ;;		line 193 in file "lib_ili9341.c"
  2855 ;; Parameters:    Size  Location     Type
  2856 ;;  bg_color        2   11[COMRAM] unsigned short 
  2857 ;; Auto vars:     Size  Location     Type
  2858 ;;  width           2   15[COMRAM] unsigned short 
  2859 ;;  height          2   13[COMRAM] unsigned short 
  2860 ;; Return value:  Size  Location     Type
  2861 ;;                  1    wreg      void 
  2862 ;; Registers used:
  2863 ;;		wreg, status,2, status,0, cstack
  2864 ;; Tracked objects:
  2865 ;;		On entry : 0/0
  2866 ;;		On exit  : 0/0
  2867 ;;		Unchanged: 0/0
  2868 ;; Data sizes:     COMRAM   BANK0   BANK1   BANK2   BANK3   BANK4   BANK5   BANK6   BANK7   BANK8   BANK9  BANK10  BANK1
      +1  BANK12  BANK13  BANK14
  2869 ;;      Params:         2       0       0       0       0       0       0       0       0       0       0       0       
      +0       0       0       0
  2870 ;;      Locals:         4       0       0       0       0       0       0       0       0       0       0       0       
      +0       0       0       0
  2871 ;;      Temps:          0       0       0       0       0       0       0       0       0       0       0       0       
      +0       0       0       0
  2872 ;;      Totals:         6       0       0       0       0       0       0       0       0       0       0       0       
      +0       0       0       0
  2873 ;;Total ram usage:        6 bytes
  2874 ;; Hardware stack levels used:    1
  2875 ;; Hardware stack levels required when called:    8
  2876 ;; This function calls:
  2877 ;;		_lcd_draw_pixel
  2878 ;;		_lcd_set_cursor
  2879 ;; This function is called by:
  2880 ;;		_lcd_init
  2881 ;; This function uses a non-reentrant model
  2882 ;;
  2883                           
  2884                           	psect	text3
  2885  0006FC                     __ptext3:
  2886                           	opt callstack 0
  2887  0006FC                     _lcd_fill:
  2888                           	opt callstack 21
  2889  0006FC                     
  2890                           ;lib_ili9341.c: 193: void lcd_fill(uint16_t bg_color);lib_ili9341.c: 194: {;lib_ili9341.
      +                          c: 195:     uint16_t width = 320, height = 240;
  2891  0006FC  0E01               	movlw	1
  2892  0006FE  6E11               	movwf	(lcd_fill@width+1)^0,c
  2893  000700  0E40               	movlw	64
  2894  000702  6E10               	movwf	lcd_fill@width^0,c
  2895  000704  0E00               	movlw	0
  2896  000706  6E0F               	movwf	(lcd_fill@height+1)^0,c
  2897  000708  0EF0               	movlw	240
  2898  00070A  6E0E               	movwf	lcd_fill@height^0,c
  2899  00070C                     
  2900                           ;lib_ili9341.c: 197:     if( lcd_set_cursor(0,0) )
  2901  00070C  0E00               	movlw	0
  2902  00070E  6E09               	movwf	(lcd_set_cursor@x+1)^0,c
  2903  000710  0E00               	movlw	0
  2904  000712  6E08               	movwf	lcd_set_cursor@x^0,c
  2905  000714  0E00               	movlw	0
  2906  000716  6E0B               	movwf	(lcd_set_cursor@y+1)^0,c
  2907  000718  0E00               	movlw	0
  2908  00071A  6E0A               	movwf	lcd_set_cursor@y^0,c
  2909  00071C  EC51  F004         	call	_lcd_set_cursor	;wreg free
  2910  000720  0900               	iorlw	0
  2911  000722  B4D8               	btfsc	status,2,c
  2912  000724  EF96  F003         	goto	u561
  2913  000728  EF98  F003         	goto	u560
  2914  00072C                     u561:
  2915  00072C  EFB1  F003         	goto	l1809
  2916  000730                     u560:
  2917  000730  EFBE  F003         	goto	l339
  2918  000734                     l1803:
  2919                           
  2920                           ;lib_ili9341.c: 205:         {;lib_ili9341.c: 206:             lcd_draw_pixel(bg_color);
  2921  000734  C00C  F006         	movff	lcd_fill@bg_color,lcd_draw_pixel@color
  2922  000738  C00D  F007         	movff	lcd_fill@bg_color+1,lcd_draw_pixel@color+1
  2923  00073C  ECE6  F004         	call	_lcd_draw_pixel	;wreg free
  2924  000740                     l1805:
  2925                           
  2926                           ;lib_ili9341.c: 204:         while(width--)
  2927  000740  0610               	decf	lcd_fill@width^0,f,c
  2928  000742  A0D8               	btfss	status,0,c
  2929  000744  0611               	decf	(lcd_fill@width+1)^0,f,c
  2930  000746  2810               	incf	lcd_fill@width^0,w,c
  2931  000748  E106               	bnz	u571
  2932  00074A  2811               	incf	(lcd_fill@width+1)^0,w,c
  2933  00074C  A4D8               	btfss	status,2,c
  2934  00074E  EFAB  F003         	goto	u571
  2935  000752  EFAD  F003         	goto	u570
  2936  000756                     u571:
  2937  000756  EF9A  F003         	goto	l1803
  2938  00075A                     u570:
  2939  00075A                     
  2940                           ;lib_ili9341.c: 208:         width = 320;
  2941  00075A  0E01               	movlw	1
  2942  00075C  6E11               	movwf	(lcd_fill@width+1)^0,c
  2943  00075E  0E40               	movlw	64
  2944  000760  6E10               	movwf	lcd_fill@width^0,c
  2945  000762                     l1809:
  2946                           
  2947                           ;lib_ili9341.c: 202:     while(height--)
  2948  000762  060E               	decf	lcd_fill@height^0,f,c
  2949  000764  A0D8               	btfss	status,0,c
  2950  000766  060F               	decf	(lcd_fill@height+1)^0,f,c
  2951  000768  280E               	incf	lcd_fill@height^0,w,c
  2952  00076A  E106               	bnz	u581
  2953  00076C  280F               	incf	(lcd_fill@height+1)^0,w,c
  2954  00076E  A4D8               	btfss	status,2,c
  2955  000770  EFBC  F003         	goto	u581
  2956  000774  EFBE  F003         	goto	u580
  2957  000778                     u581:
  2958  000778  EFA0  F003         	goto	l1805
  2959  00077C                     u580:
  2960  00077C                     l339:
  2961  00077C  0012               	return		;funcret
  2962  00077E                     __end_of_lcd_fill:
  2963                           	opt callstack 0
  2964                           
  2965 ;; *************** function _lcd_draw_string *****************
  2966 ;; Defined at:
  2967 ;;		line 380 in file "lib_ili9341.c"
  2968 ;; Parameters:    Size  Location     Type
  2969 ;;  x               2   33[COMRAM] unsigned short 
  2970 ;;  y               2   35[COMRAM] unsigned short 
  2971 ;;  pS              2   37[COMRAM] PTR const unsigned char 
  2972 ;;		 -> STR_1(12), 
  2973 ;;  fg_color        2   39[COMRAM] unsigned short 
  2974 ;;  bg_color        2   41[COMRAM] unsigned short 
  2975 ;; Auto vars:     Size  Location     Type
  2976 ;;  lIndex          2   49[COMRAM] unsigned short 
  2977 ;;  k               2   47[COMRAM] unsigned short 
  2978 ;; Return value:  Size  Location     Type
  2979 ;;                  1    wreg      void 
  2980 ;; Registers used:
  2981 ;;		wreg, status,2, status,0, tblptrl, tblptrh, tblptru, cstack
  2982 ;; Tracked objects:
  2983 ;;		On entry : 0/0
  2984 ;;		On exit  : 0/0
  2985 ;;		Unchanged: 0/0
  2986 ;; Data sizes:     COMRAM   BANK0   BANK1   BANK2   BANK3   BANK4   BANK5   BANK6   BANK7   BANK8   BANK9  BANK10  BANK1
      +1  BANK12  BANK13  BANK14
  2987 ;;      Params:        10       0       0       0       0       0       0       0       0       0       0       0       
      +0       0       0       0
  2988 ;;      Locals:         4       0       0       0       0       0       0       0       0       0       0       0       
      +0       0       0       0
  2989 ;;      Temps:          4       0       0       0       0       0       0       0       0       0       0       0       
      +0       0       0       0
  2990 ;;      Totals:        18       0       0       0       0       0       0       0       0       0       0       0       
      +0       0       0       0
  2991 ;;Total ram usage:       18 bytes
  2992 ;; Hardware stack levels used:    1
  2993 ;; Hardware stack levels required when called:    9
  2994 ;; This function calls:
  2995 ;;		_lcd_draw_char
  2996 ;; This function is called by:
  2997 ;;		_main
  2998 ;; This function uses a non-reentrant model
  2999 ;;
  3000                           
  3001                           	psect	text4
  3002  000542                     __ptext4:
  3003                           	opt callstack 0
  3004  000542                     _lcd_draw_string:
  3005                           	opt callstack 21
  3006  000542                     
  3007                           ;lib_ili9341.c: 380: void lcd_draw_string (uint16_t x, uint16_t y, const char *pS, uint1
      +                          6_t fg_color, uint16_t bg_color);lib_ili9341.c: 381: {;lib_ili9341.c: 382:     uint16_t 
      +                          lIndex, k;;lib_ili9341.c: 384:     while(*pS)
  3008  000542  EF16  F003         	goto	l2057
  3009  000546                     l2043:
  3010                           
  3011                           ;lib_ili9341.c: 385:     {;lib_ili9341.c: 386:         lIndex = 0;
  3012  000546  0E00               	movlw	0
  3013  000548  6E33               	movwf	(lcd_draw_string@lIndex+1)^0,c
  3014  00054A  0E00               	movlw	0
  3015  00054C  6E32               	movwf	lcd_draw_string@lIndex^0,c
  3016                           
  3017                           ;lib_ili9341.c: 387:         for(k=0; k<(*pS - ' '); k++)
  3018  00054E  0E00               	movlw	0
  3019  000550  6E31               	movwf	(lcd_draw_string@k+1)^0,c
  3020  000552  0E00               	movlw	0
  3021  000554  6E30               	movwf	lcd_draw_string@k^0,c
  3022  000556  EFCC  F002         	goto	l2049
  3023  00055A                     l2045:
  3024                           
  3025                           ;lib_ili9341.c: 388:         {;lib_ili9341.c: 389:             lIndex += ((font[lIndex])
      +                           << 1) + 1;
  3026  00055A  90D8               	bcf	status,0,c
  3027  00055C  3432               	rlcf	lcd_draw_string@lIndex^0,w,c
  3028  00055E  6EF6               	movwf	tblptrl,c
  3029  000560  3433               	rlcf	(lcd_draw_string@lIndex+1)^0,w,c
  3030  000562  6EF7               	movwf	tblptrh,c
  3031  000564  0E23               	movlw	low _font
  3032  000566  26F6               	addwf	tblptrl,f,c
  3033  000568  0EF2               	movlw	high _font
  3034  00056A  22F7               	addwfc	tblptrh,f,c
  3035  00056C                     	if	1	;There are 3 active tblptr bytes
  3036  00056C  6AF8               	clrf	tblptru,c
  3037  00056E  0E00               	movlw	low (__mediumconst shr (0+16))
  3038  000570  22F8               	addwfc	tblptru,f,c
  3039  000572                     	endif
  3040  000572  0009               	tblrd		*+
  3041  000574  CFF5 F02C          	movff	tablat,??_lcd_draw_string
  3042  000578  0009               	tblrd		*+
  3043  00057A  CFF5 F02D          	movff	tablat,??_lcd_draw_string+1
  3044  00057E  90D8               	bcf	status,0,c
  3045  000580  362C               	rlcf	??_lcd_draw_string^0,f,c
  3046  000582  362D               	rlcf	(??_lcd_draw_string+1)^0,f,c
  3047  000584  0E01               	movlw	1
  3048  000586  262C               	addwf	??_lcd_draw_string^0,f,c
  3049  000588  0E00               	movlw	0
  3050  00058A  222D               	addwfc	(??_lcd_draw_string+1)^0,f,c
  3051  00058C  502C               	movf	??_lcd_draw_string^0,w,c
  3052  00058E  2632               	addwf	lcd_draw_string@lIndex^0,f,c
  3053  000590  502D               	movf	(??_lcd_draw_string+1)^0,w,c
  3054  000592  2233               	addwfc	(lcd_draw_string@lIndex+1)^0,f,c
  3055  000594                     
  3056                           ;lib_ili9341.c: 390:         }
  3057  000594  4A30               	infsnz	lcd_draw_string@k^0,f,c
  3058  000596  2A31               	incf	(lcd_draw_string@k+1)^0,f,c
  3059  000598                     l2049:
  3060  000598  0EE0               	movlw	224
  3061  00059A  6E2C               	movwf	??_lcd_draw_string^0,c
  3062  00059C  0EFF               	movlw	255
  3063  00059E  6E2D               	movwf	(??_lcd_draw_string+1)^0,c
  3064  0005A0  C026  FFF6         	movff	lcd_draw_string@pS,tblptrl
  3065  0005A4  C027  FFF7         	movff	lcd_draw_string@pS+1,tblptrh
  3066  0005A8                     	if	1	;Program memory is < 0x10000, tblptru is always zero
  3067  0005A8  6AF8               	clrf	tblptru,c
  3068  0005AA                     	endif
  3069  0005AA                     	if	0	;tblptru may be non-zero
  3070  0005AA                     	endif
  3071  0005AA  0008               	tblrd		*
  3072  0005AC  50F5               	movf	tablat,w,c
  3073  0005AE  6E2E               	movwf	(??_lcd_draw_string+2)^0,c
  3074  0005B0  6A2F               	clrf	(??_lcd_draw_string+3)^0,c
  3075  0005B2  502C               	movf	??_lcd_draw_string^0,w,c
  3076  0005B4  262E               	addwf	(??_lcd_draw_string+2)^0,f,c
  3077  0005B6  502D               	movf	(??_lcd_draw_string+1)^0,w,c
  3078  0005B8  222F               	addwfc	(??_lcd_draw_string+3)^0,f,c
  3079  0005BA  502E               	movf	(??_lcd_draw_string+2)^0,w,c
  3080  0005BC  5C30               	subwf	lcd_draw_string@k^0,w,c
  3081  0005BE  502F               	movf	(??_lcd_draw_string+3)^0,w,c
  3082  0005C0  5831               	subwfb	(lcd_draw_string@k+1)^0,w,c
  3083  0005C2  A0D8               	btfss	status,0,c
  3084  0005C4  EFE6  F002         	goto	u651
  3085  0005C8  EFE8  F002         	goto	u650
  3086  0005CC                     u651:
  3087  0005CC  EFAD  F002         	goto	l2045
  3088  0005D0                     u650:
  3089  0005D0                     
  3090                           ;lib_ili9341.c: 392:         lcd_draw_char(x, y, lIndex, fg_color, bg_color);
  3091  0005D0  C022  F00C         	movff	lcd_draw_string@x,lcd_draw_char@x
  3092  0005D4  C023  F00D         	movff	lcd_draw_string@x+1,lcd_draw_char@x+1
  3093  0005D8  C024  F00E         	movff	lcd_draw_string@y,lcd_draw_char@y
  3094  0005DC  C025  F00F         	movff	lcd_draw_string@y+1,lcd_draw_char@y+1
  3095  0005E0  C032  F010         	movff	lcd_draw_string@lIndex,lcd_draw_char@fIndex
  3096  0005E4  C033  F011         	movff	lcd_draw_string@lIndex+1,lcd_draw_char@fIndex+1
  3097  0005E8  C028  F012         	movff	lcd_draw_string@fg_color,lcd_draw_char@fg_color
  3098  0005EC  C029  F013         	movff	lcd_draw_string@fg_color+1,lcd_draw_char@fg_color+1
  3099  0005F0  C02A  F014         	movff	lcd_draw_string@bg_color,lcd_draw_char@bg_color
  3100  0005F4  C02B  F015         	movff	lcd_draw_string@bg_color+1,lcd_draw_char@bg_color+1
  3101  0005F8  ECE4  F001         	call	_lcd_draw_char	;wreg free
  3102  0005FC                     
  3103                           ;lib_ili9341.c: 394:         x += font[lIndex];
  3104  0005FC  90D8               	bcf	status,0,c
  3105  0005FE  3432               	rlcf	lcd_draw_string@lIndex^0,w,c
  3106  000600  6EF6               	movwf	tblptrl,c
  3107  000602  3433               	rlcf	(lcd_draw_string@lIndex+1)^0,w,c
  3108  000604  6EF7               	movwf	tblptrh,c
  3109  000606  0E23               	movlw	low _font
  3110  000608  26F6               	addwf	tblptrl,f,c
  3111  00060A  0EF2               	movlw	high _font
  3112  00060C  22F7               	addwfc	tblptrh,f,c
  3113  00060E                     	if	1	;There are 3 active tblptr bytes
  3114  00060E  6AF8               	clrf	tblptru,c
  3115  000610  0E00               	movlw	low (__mediumconst shr (0+16))
  3116  000612  22F8               	addwfc	tblptru,f,c
  3117  000614                     	endif
  3118  000614  0009               	tblrd		*+
  3119  000616  CFF5 F02C          	movff	tablat,??_lcd_draw_string
  3120  00061A  0009               	tblrd		*+
  3121  00061C  CFF5 F02D          	movff	tablat,??_lcd_draw_string+1
  3122  000620  502C               	movf	??_lcd_draw_string^0,w,c
  3123  000622  2622               	addwf	lcd_draw_string@x^0,f,c
  3124  000624  502D               	movf	(??_lcd_draw_string+1)^0,w,c
  3125  000626  2223               	addwfc	(lcd_draw_string@x+1)^0,f,c
  3126  000628                     
  3127                           ;lib_ili9341.c: 396:         pS++;
  3128  000628  4A26               	infsnz	lcd_draw_string@pS^0,f,c
  3129  00062A  2A27               	incf	(lcd_draw_string@pS+1)^0,f,c
  3130  00062C                     l2057:
  3131                           
  3132                           ;lib_ili9341.c: 384:     while(*pS)
  3133  00062C  C026  FFF6         	movff	lcd_draw_string@pS,tblptrl
  3134  000630  C027  FFF7         	movff	lcd_draw_string@pS+1,tblptrh
  3135  000634                     	if	1	;Program memory is < 0x10000, tblptru is always zero
  3136  000634  6AF8               	clrf	tblptru,c
  3137  000636                     	endif
  3138  000636                     	if	0	;tblptru may be non-zero
  3139  000636                     	endif
  3140  000636  0008               	tblrd		*
  3141  000638  50F5               	movf	tablat,w,c
  3142  00063A  0900               	iorlw	0
  3143  00063C  A4D8               	btfss	status,2,c
  3144  00063E  EF23  F003         	goto	u661
  3145  000642  EF25  F003         	goto	u660
  3146  000646                     u661:
  3147  000646  EFA3  F002         	goto	l2043
  3148  00064A                     u660:
  3149  00064A  0012               	return		;funcret
  3150  00064C                     __end_of_lcd_draw_string:
  3151                           	opt callstack 0
  3152                           
  3153 ;; *************** function _lcd_draw_char *****************
  3154 ;; Defined at:
  3155 ;;		line 355 in file "lib_ili9341.c"
  3156 ;; Parameters:    Size  Location     Type
  3157 ;;  x               2   11[COMRAM] unsigned short 
  3158 ;;  y               2   13[COMRAM] unsigned short 
  3159 ;;  fIndex          2   15[COMRAM] unsigned short 
  3160 ;;  fg_color        2   17[COMRAM] unsigned short 
  3161 ;;  bg_color        2   19[COMRAM] unsigned short 
  3162 ;; Auto vars:     Size  Location     Type
  3163 ;;  i               1   32[COMRAM] unsigned char 
  3164 ;;  k               1   31[COMRAM] unsigned char 
  3165 ;;  j               1   30[COMRAM] unsigned char 
  3166 ;; Return value:  Size  Location     Type
  3167 ;;                  1    wreg      void 
  3168 ;; Registers used:
  3169 ;;		wreg, status,2, status,0, tblptrl, tblptrh, tblptru, cstack
  3170 ;; Tracked objects:
  3171 ;;		On entry : 0/0
  3172 ;;		On exit  : 0/0
  3173 ;;		Unchanged: 0/0
  3174 ;; Data sizes:     COMRAM   BANK0   BANK1   BANK2   BANK3   BANK4   BANK5   BANK6   BANK7   BANK8   BANK9  BANK10  BANK1
      +1  BANK12  BANK13  BANK14
  3175 ;;      Params:        10       0       0       0       0       0       0       0       0       0       0       0       
      +0       0       0       0
  3176 ;;      Locals:         3       0       0       0       0       0       0       0       0       0       0       0       
      +0       0       0       0
  3177 ;;      Temps:          9       0       0       0       0       0       0       0       0       0       0       0       
      +0       0       0       0
  3178 ;;      Totals:        22       0       0       0       0       0       0       0       0       0       0       0       
      +0       0       0       0
  3179 ;;Total ram usage:       22 bytes
  3180 ;; Hardware stack levels used:    1
  3181 ;; Hardware stack levels required when called:    8
  3182 ;; This function calls:
  3183 ;;		_lcd_draw_pixel
  3184 ;;		_lcd_set_cursor
  3185 ;; This function is called by:
  3186 ;;		_lcd_draw_string
  3187 ;; This function uses a non-reentrant model
  3188 ;;
  3189                           
  3190                           	psect	text5
  3191  0003C8                     __ptext5:
  3192                           	opt callstack 0
  3193  0003C8                     _lcd_draw_char:
  3194                           	opt callstack 21
  3195  0003C8                     
  3196                           ;lib_ili9341.c: 355: void lcd_draw_char (uint16_t x, uint16_t y, uint16_t fIndex, uint16
      +                          _t fg_color, uint16_t bg_color);lib_ili9341.c: 356: {;lib_ili9341.c: 357:     uint8_t j,
      +                           k, i;;lib_ili9341.c: 359:     for(j=0; j < font[fIndex]; j++)
  3197  0003C8  0E00               	movlw	0
  3198  0003CA  6E1F               	movwf	lcd_draw_char@j^0,c
  3199  0003CC  EF84  F002         	goto	l1847
  3200  0003D0                     l1817:
  3201                           
  3202                           ;lib_ili9341.c: 360:     {;lib_ili9341.c: 361:         lcd_set_cursor(x + font[fIndex] -
      +                           j, y);
  3203  0003D0  90D8               	bcf	status,0,c
  3204  0003D2  3410               	rlcf	lcd_draw_char@fIndex^0,w,c
  3205  0003D4  6EF6               	movwf	tblptrl,c
  3206  0003D6  3411               	rlcf	(lcd_draw_char@fIndex+1)^0,w,c
  3207  0003D8  6EF7               	movwf	tblptrh,c
  3208  0003DA  0E23               	movlw	low _font
  3209  0003DC  26F6               	addwf	tblptrl,f,c
  3210  0003DE  0EF2               	movlw	high _font
  3211  0003E0  22F7               	addwfc	tblptrh,f,c
  3212  0003E2                     	if	1	;There are 3 active tblptr bytes
  3213  0003E2  6AF8               	clrf	tblptru,c
  3214  0003E4  0E00               	movlw	low (__mediumconst shr (0+16))
  3215  0003E6  22F8               	addwfc	tblptru,f,c
  3216  0003E8                     	endif
  3217  0003E8  0009               	tblrd		*+
  3218  0003EA  CFF5 F016          	movff	tablat,??_lcd_draw_char
  3219  0003EE  0009               	tblrd		*+
  3220  0003F0  CFF5 F017          	movff	tablat,??_lcd_draw_char+1
  3221  0003F4  501F               	movf	lcd_draw_char@j^0,w,c
  3222  0003F6  5E16               	subwf	??_lcd_draw_char^0,f,c
  3223  0003F8  0E00               	movlw	0
  3224  0003FA  5A17               	subwfb	(??_lcd_draw_char+1)^0,f,c
  3225  0003FC  500C               	movf	lcd_draw_char@x^0,w,c
  3226  0003FE  2416               	addwf	??_lcd_draw_char^0,w,c
  3227  000400  6E08               	movwf	lcd_set_cursor@x^0,c
  3228  000402  500D               	movf	(lcd_draw_char@x+1)^0,w,c
  3229  000404  2017               	addwfc	(??_lcd_draw_char+1)^0,w,c
  3230  000406  6E09               	movwf	(lcd_set_cursor@x+1)^0,c
  3231  000408  C00E  F00A         	movff	lcd_draw_char@y,lcd_set_cursor@y
  3232  00040C  C00F  F00B         	movff	lcd_draw_char@y+1,lcd_set_cursor@y+1
  3233  000410  EC51  F004         	call	_lcd_set_cursor	;wreg free
  3234  000414                     
  3235                           ;lib_ili9341.c: 363:         for(k=0; k<2; k++)
  3236  000414  0E00               	movlw	0
  3237  000416  6E20               	movwf	lcd_draw_char@k^0,c
  3238  000418                     l1825:
  3239                           
  3240                           ;lib_ili9341.c: 364:         {;lib_ili9341.c: 365:             for(i=0; i<8; i++)
  3241  000418  0E00               	movlw	0
  3242  00041A  6E21               	movwf	lcd_draw_char@i^0,c
  3243  00041C                     l1831:
  3244                           
  3245                           ;lib_ili9341.c: 366:             {;lib_ili9341.c: 367:                 if( font[ (fIndex
      +                           + ((font[fIndex]) << 1)) - (j<<1) - k ] & (0x80 >> i) )
  3246  00041C  501F               	movf	lcd_draw_char@j^0,w,c
  3247  00041E  6E16               	movwf	??_lcd_draw_char^0,c
  3248  000420  6A17               	clrf	(??_lcd_draw_char+1)^0,c
  3249  000422  90D8               	bcf	status,0,c
  3250  000424  3616               	rlcf	??_lcd_draw_char^0,f,c
  3251  000426  3617               	rlcf	(??_lcd_draw_char+1)^0,f,c
  3252  000428  90D8               	bcf	status,0,c
  3253  00042A  3410               	rlcf	lcd_draw_char@fIndex^0,w,c
  3254  00042C  6EF6               	movwf	tblptrl,c
  3255  00042E  3411               	rlcf	(lcd_draw_char@fIndex+1)^0,w,c
  3256  000430  6EF7               	movwf	tblptrh,c
  3257  000432  0E23               	movlw	low _font
  3258  000434  26F6               	addwf	tblptrl,f,c
  3259  000436  0EF2               	movlw	high _font
  3260  000438  22F7               	addwfc	tblptrh,f,c
  3261  00043A                     	if	1	;There are 3 active tblptr bytes
  3262  00043A  6AF8               	clrf	tblptru,c
  3263  00043C  0E00               	movlw	low (__mediumconst shr (0+16))
  3264  00043E  22F8               	addwfc	tblptru,f,c
  3265  000440                     	endif
  3266  000440  0009               	tblrd		*+
  3267  000442  CFF5 F018          	movff	tablat,??_lcd_draw_char+2
  3268  000446  0009               	tblrd		*+
  3269  000448  CFF5 F019          	movff	tablat,??_lcd_draw_char+3
  3270  00044C  90D8               	bcf	status,0,c
  3271  00044E  3618               	rlcf	(??_lcd_draw_char+2)^0,f,c
  3272  000450  3619               	rlcf	(??_lcd_draw_char+3)^0,f,c
  3273  000452  5016               	movf	??_lcd_draw_char^0,w,c
  3274  000454  5E18               	subwf	(??_lcd_draw_char+2)^0,f,c
  3275  000456  5017               	movf	(??_lcd_draw_char+1)^0,w,c
  3276  000458  5A19               	subwfb	(??_lcd_draw_char+3)^0,f,c
  3277  00045A  5020               	movf	lcd_draw_char@k^0,w,c
  3278  00045C  5E18               	subwf	(??_lcd_draw_char+2)^0,f,c
  3279  00045E  0E00               	movlw	0
  3280  000460  5A19               	subwfb	(??_lcd_draw_char+3)^0,f,c
  3281  000462  5010               	movf	lcd_draw_char@fIndex^0,w,c
  3282  000464  2618               	addwf	(??_lcd_draw_char+2)^0,f,c
  3283  000466  5011               	movf	(lcd_draw_char@fIndex+1)^0,w,c
  3284  000468  2219               	addwfc	(??_lcd_draw_char+3)^0,f,c
  3285  00046A  90D8               	bcf	status,0,c
  3286  00046C  3618               	rlcf	(??_lcd_draw_char+2)^0,f,c
  3287  00046E  3619               	rlcf	(??_lcd_draw_char+3)^0,f,c
  3288  000470  0E23               	movlw	low _font
  3289  000472  2418               	addwf	(??_lcd_draw_char+2)^0,w,c
  3290  000474  6EF6               	movwf	tblptrl,c
  3291  000476  0EF2               	movlw	high _font
  3292  000478  2019               	addwfc	(??_lcd_draw_char+3)^0,w,c
  3293  00047A  6EF7               	movwf	tblptrh,c
  3294  00047C                     	if	1	;There are 3 active tblptr bytes
  3295  00047C  6AF8               	clrf	tblptru,c
  3296  00047E  0E00               	movlw	low (__mediumconst shr (0+16))
  3297  000480  22F8               	addwfc	tblptru,f,c
  3298  000482                     	endif
  3299  000482  0009               	tblrd		*+
  3300  000484  CFF5 F01A          	movff	tablat,??_lcd_draw_char+4
  3301  000488  0009               	tblrd		*+
  3302  00048A  CFF5 F01B          	movff	tablat,??_lcd_draw_char+5
  3303  00048E  C021  F01C         	movff	lcd_draw_char@i,??_lcd_draw_char+6
  3304  000492  0E80               	movlw	128
  3305  000494  6E1D               	movwf	(??_lcd_draw_char+7)^0,c
  3306  000496  0E00               	movlw	0
  3307  000498  6E1E               	movwf	(??_lcd_draw_char+8)^0,c
  3308  00049A  2A1C               	incf	(??_lcd_draw_char+6)^0,f,c
  3309  00049C  EF53  F002         	goto	u604
  3310  0004A0                     u605:
  3311  0004A0  341E               	rlcf	(??_lcd_draw_char+8)^0,w,c
  3312  0004A2  321E               	rrcf	(??_lcd_draw_char+8)^0,f,c
  3313  0004A4  321D               	rrcf	(??_lcd_draw_char+7)^0,f,c
  3314  0004A6                     u604:
  3315  0004A6  2E1C               	decfsz	(??_lcd_draw_char+6)^0,f,c
  3316  0004A8  EF50  F002         	goto	u605
  3317  0004AC  501A               	movf	(??_lcd_draw_char+4)^0,w,c
  3318  0004AE  161D               	andwf	(??_lcd_draw_char+7)^0,f,c
  3319  0004B0  501B               	movf	(??_lcd_draw_char+5)^0,w,c
  3320  0004B2  161E               	andwf	(??_lcd_draw_char+8)^0,f,c
  3321  0004B4  501D               	movf	(??_lcd_draw_char+7)^0,w,c
  3322  0004B6  101E               	iorwf	(??_lcd_draw_char+8)^0,w,c
  3323  0004B8  B4D8               	btfsc	status,2,c
  3324  0004BA  EF61  F002         	goto	u611
  3325  0004BE  EF63  F002         	goto	u610
  3326  0004C2                     u611:
  3327  0004C2  EF6B  F002         	goto	l1835
  3328  0004C6                     u610:
  3329  0004C6                     
  3330                           ;lib_ili9341.c: 368:                 {;lib_ili9341.c: 369:                     lcd_draw_
      +                          pixel(fg_color);
  3331  0004C6  C012  F006         	movff	lcd_draw_char@fg_color,lcd_draw_pixel@color
  3332  0004CA  C013  F007         	movff	lcd_draw_char@fg_color+1,lcd_draw_pixel@color+1
  3333  0004CE  ECE6  F004         	call	_lcd_draw_pixel	;wreg free
  3334                           
  3335                           ;lib_ili9341.c: 370:                 }
  3336  0004D2  EF71  F002         	goto	l1837
  3337  0004D6                     l1835:
  3338                           
  3339                           ;lib_ili9341.c: 372:                 {;lib_ili9341.c: 373:                     lcd_draw_
      +                          pixel(bg_color);
  3340  0004D6  C014  F006         	movff	lcd_draw_char@bg_color,lcd_draw_pixel@color
  3341  0004DA  C015  F007         	movff	lcd_draw_char@bg_color+1,lcd_draw_pixel@color+1
  3342  0004DE  ECE6  F004         	call	_lcd_draw_pixel	;wreg free
  3343  0004E2                     l1837:
  3344                           
  3345                           ;lib_ili9341.c: 375:             }
  3346  0004E2  2A21               	incf	lcd_draw_char@i^0,f,c
  3347  0004E4  0E07               	movlw	7
  3348  0004E6  6421               	cpfsgt	lcd_draw_char@i^0,c
  3349  0004E8  EF78  F002         	goto	u621
  3350  0004EC  EF7A  F002         	goto	u620
  3351  0004F0                     u621:
  3352  0004F0  EF0E  F002         	goto	l1831
  3353  0004F4                     u620:
  3354  0004F4                     
  3355                           ;lib_ili9341.c: 376:         }
  3356  0004F4  2A20               	incf	lcd_draw_char@k^0,f,c
  3357  0004F6  0E01               	movlw	1
  3358  0004F8  6420               	cpfsgt	lcd_draw_char@k^0,c
  3359  0004FA  EF81  F002         	goto	u631
  3360  0004FE  EF83  F002         	goto	u630
  3361  000502                     u631:
  3362  000502  EF0C  F002         	goto	l1825
  3363  000506                     u630:
  3364  000506                     
  3365                           ;lib_ili9341.c: 377:     }
  3366  000506  2A1F               	incf	lcd_draw_char@j^0,f,c
  3367  000508                     l1847:
  3368  000508  90D8               	bcf	status,0,c
  3369  00050A  3410               	rlcf	lcd_draw_char@fIndex^0,w,c
  3370  00050C  6EF6               	movwf	tblptrl,c
  3371  00050E  3411               	rlcf	(lcd_draw_char@fIndex+1)^0,w,c
  3372  000510  6EF7               	movwf	tblptrh,c
  3373  000512  0E23               	movlw	low _font
  3374  000514  26F6               	addwf	tblptrl,f,c
  3375  000516  0EF2               	movlw	high _font
  3376  000518  22F7               	addwfc	tblptrh,f,c
  3377  00051A                     	if	1	;There are 3 active tblptr bytes
  3378  00051A  6AF8               	clrf	tblptru,c
  3379  00051C  0E00               	movlw	low (__mediumconst shr (0+16))
  3380  00051E  22F8               	addwfc	tblptru,f,c
  3381  000520                     	endif
  3382  000520  501F               	movf	lcd_draw_char@j^0,w,c
  3383  000522  6E16               	movwf	??_lcd_draw_char^0,c
  3384  000524  6A17               	clrf	(??_lcd_draw_char+1)^0,c
  3385  000526  0009               	tblrd		*+
  3386  000528  50F5               	movf	tablat,w,c
  3387  00052A  5C16               	subwf	??_lcd_draw_char^0,w,c
  3388  00052C  0009               	tblrd		*+
  3389  00052E  50F5               	movf	tablat,w,c
  3390  000530  5817               	subwfb	(??_lcd_draw_char+1)^0,w,c
  3391  000532  A0D8               	btfss	status,0,c
  3392  000534  EF9E  F002         	goto	u641
  3393  000538  EFA0  F002         	goto	u640
  3394  00053C                     u641:
  3395  00053C  EFE8  F001         	goto	l1817
  3396  000540                     u640:
  3397  000540  0012               	return		;funcret
  3398  000542                     __end_of_lcd_draw_char:
  3399                           	opt callstack 0
  3400                           
  3401 ;; *************** function _lcd_set_cursor *****************
  3402 ;; Defined at:
  3403 ;;		line 144 in file "lib_ili9341.c"
  3404 ;; Parameters:    Size  Location     Type
  3405 ;;  x               2    7[COMRAM] unsigned short 
  3406 ;;  y               2    9[COMRAM] unsigned short 
  3407 ;; Auto vars:     Size  Location     Type
  3408 ;;		None
  3409 ;; Return value:  Size  Location     Type
  3410 ;;                  1    wreg      unsigned char 
  3411 ;; Registers used:
  3412 ;;		wreg, status,2, status,0, cstack
  3413 ;; Tracked objects:
  3414 ;;		On entry : 0/0
  3415 ;;		On exit  : 0/0
  3416 ;;		Unchanged: 0/0
  3417 ;; Data sizes:     COMRAM   BANK0   BANK1   BANK2   BANK3   BANK4   BANK5   BANK6   BANK7   BANK8   BANK9  BANK10  BANK1
      +1  BANK12  BANK13  BANK14
  3418 ;;      Params:         4       0       0       0       0       0       0       0       0       0       0       0       
      +0       0       0       0
  3419 ;;      Locals:         0       0       0       0       0       0       0       0       0       0       0       0       
      +0       0       0       0
  3420 ;;      Temps:          0       0       0       0       0       0       0       0       0       0       0       0       
      +0       0       0       0
  3421 ;;      Totals:         4       0       0       0       0       0       0       0       0       0       0       0       
      +0       0       0       0
  3422 ;;Total ram usage:        4 bytes
  3423 ;; Hardware stack levels used:    1
  3424 ;; Hardware stack levels required when called:    7
  3425 ;; This function calls:
  3426 ;;		_lcd_set_cursor_x
  3427 ;;		_lcd_set_cursor_y
  3428 ;; This function is called by:
  3429 ;;		_lcd_fill
  3430 ;;		_lcd_draw_char
  3431 ;;		_lcd_draw_pixel_at
  3432 ;;		_lcd_fill_rect
  3433 ;; This function uses a non-reentrant model
  3434 ;;
  3435                           
  3436                           	psect	text6
  3437  0008A2                     __ptext6:
  3438                           	opt callstack 0
  3439  0008A2                     _lcd_set_cursor:
  3440                           	opt callstack 21
  3441  0008A2                     
  3442                           ;lib_ili9341.c: 144: uint8_t lcd_set_cursor(uint16_t x, uint16_t y);lib_ili9341.c: 145: 
      +                          {;lib_ili9341.c: 146:     if( lcd_set_cursor_x(x) || lcd_set_cursor_y(y) )
  3443  0008A2  C008  F006         	movff	lcd_set_cursor@x,lcd_set_cursor_x@x
  3444  0008A6  C009  F007         	movff	lcd_set_cursor@x+1,lcd_set_cursor_x@x+1
  3445  0008AA  EC0A  F004         	call	_lcd_set_cursor_x	;wreg free
  3446  0008AE  0900               	iorlw	0
  3447  0008B0  A4D8               	btfss	status,2,c
  3448  0008B2  EF5D  F004         	goto	u541
  3449  0008B6  EF5F  F004         	goto	u540
  3450  0008BA                     u541:
  3451  0008BA  EF6D  F004         	goto	l1771
  3452  0008BE                     u540:
  3453  0008BE  C00A  F006         	movff	lcd_set_cursor@y,lcd_set_cursor_y@y
  3454  0008C2  C00B  F007         	movff	lcd_set_cursor@y+1,lcd_set_cursor_y@y+1
  3455  0008C6  ECE6  F003         	call	_lcd_set_cursor_y	;wreg free
  3456  0008CA  0900               	iorlw	0
  3457  0008CC  B4D8               	btfsc	status,2,c
  3458  0008CE  EF6B  F004         	goto	u551
  3459  0008D2  EF6D  F004         	goto	u550
  3460  0008D6                     u551:
  3461  0008D6  EF70  F004         	goto	l1775
  3462  0008DA                     u550:
  3463  0008DA                     l1771:
  3464                           
  3465                           ;lib_ili9341.c: 147:     {;lib_ili9341.c: 148:         return 1;
  3466  0008DA  0E01               	movlw	1
  3467  0008DC  EF71  F004         	goto	l324
  3468  0008E0                     l1775:
  3469                           
  3470                           ;lib_ili9341.c: 151:     return 0;
  3471  0008E0  0E00               	movlw	0
  3472  0008E2                     l324:
  3473  0008E2  0012               	return		;funcret
  3474  0008E4                     __end_of_lcd_set_cursor:
  3475                           	opt callstack 0
  3476                           
  3477 ;; *************** function _lcd_set_cursor_y *****************
  3478 ;; Defined at:
  3479 ;;		line 170 in file "lib_ili9341.c"
  3480 ;; Parameters:    Size  Location     Type
  3481 ;;  y               2    5[COMRAM] unsigned short 
  3482 ;; Auto vars:     Size  Location     Type
  3483 ;;		None
  3484 ;; Return value:  Size  Location     Type
  3485 ;;                  1    wreg      unsigned char 
  3486 ;; Registers used:
  3487 ;;		wreg, status,2, status,0, cstack
  3488 ;; Tracked objects:
  3489 ;;		On entry : 0/0
  3490 ;;		On exit  : 0/0
  3491 ;;		Unchanged: 0/0
  3492 ;; Data sizes:     COMRAM   BANK0   BANK1   BANK2   BANK3   BANK4   BANK5   BANK6   BANK7   BANK8   BANK9  BANK10  BANK1
      +1  BANK12  BANK13  BANK14
  3493 ;;      Params:         2       0       0       0       0       0       0       0       0       0       0       0       
      +0       0       0       0
  3494 ;;      Locals:         0       0       0       0       0       0       0       0       0       0       0       0       
      +0       0       0       0
  3495 ;;      Temps:          0       0       0       0       0       0       0       0       0       0       0       0       
      +0       0       0       0
  3496 ;;      Totals:         2       0       0       0       0       0       0       0       0       0       0       0       
      +0       0       0       0
  3497 ;;Total ram usage:        2 bytes
  3498 ;; Hardware stack levels used:    1
  3499 ;; Hardware stack levels required when called:    6
  3500 ;; This function calls:
  3501 ;;		_lcd_send
  3502 ;; This function is called by:
  3503 ;;		_lcd_set_cursor
  3504 ;; This function uses a non-reentrant model
  3505 ;;
  3506                           
  3507                           	psect	text7
  3508  0007CC                     __ptext7:
  3509                           	opt callstack 0
  3510  0007CC                     _lcd_set_cursor_y:
  3511                           	opt callstack 21
  3512  0007CC                     
  3513                           ;lib_ili9341.c: 170: uint8_t lcd_set_cursor_y(uint16_t y);lib_ili9341.c: 171: {;lib_ili9
      +                          341.c: 172:     if( y >= 240 )
  3514  0007CC  5007               	movf	(lcd_set_cursor_y@y+1)^0,w,c
  3515  0007CE  E109               	bnz	u530
  3516  0007D0  0EF0               	movlw	240
  3517  0007D2  5C06               	subwf	lcd_set_cursor_y@y^0,w,c
  3518  0007D4  A0D8               	btfss	status,0,c
  3519  0007D6  EFEF  F003         	goto	u531
  3520  0007DA  EFF1  F003         	goto	u530
  3521  0007DE                     u531:
  3522  0007DE  EFF4  F003         	goto	l1759
  3523  0007E2                     u530:
  3524  0007E2                     
  3525                           ;lib_ili9341.c: 173:     {;lib_ili9341.c: 174:         return 1;
  3526  0007E2  0E01               	movlw	1
  3527  0007E4  EF09  F004         	goto	l332
  3528  0007E8                     l1759:
  3529                           
  3530                           ;lib_ili9341.c: 177:     lcd_send(0, 0x2A);
  3531  0007E8  0E2A               	movlw	42
  3532  0007EA  6E04               	movwf	lcd_send@value^0,c
  3533  0007EC  0E00               	movlw	0
  3534  0007EE  ECCE  F004         	call	_lcd_send
  3535                           
  3536                           ;lib_ili9341.c: 178:     lcd_send(1, y >> 8);
  3537  0007F2  5007               	movf	(lcd_set_cursor_y@y+1)^0,w,c
  3538  0007F4  6E04               	movwf	lcd_send@value^0,c
  3539  0007F6  0E01               	movlw	1
  3540  0007F8  ECCE  F004         	call	_lcd_send
  3541                           
  3542                           ;lib_ili9341.c: 179:     lcd_send(1, y & 0xFF);
  3543  0007FC  C006  F004         	movff	lcd_set_cursor_y@y,lcd_send@value
  3544  000800  0E01               	movlw	1
  3545  000802  ECCE  F004         	call	_lcd_send
  3546                           
  3547                           ;lib_ili9341.c: 180:     lcd_send(0, 0x2c);
  3548  000806  0E2C               	movlw	44
  3549  000808  6E04               	movwf	lcd_send@value^0,c
  3550  00080A  0E00               	movlw	0
  3551  00080C  ECCE  F004         	call	_lcd_send
  3552  000810                     
  3553                           ;lib_ili9341.c: 182:     return 0;
  3554  000810  0E00               	movlw	0
  3555  000812                     l332:
  3556  000812  0012               	return		;funcret
  3557  000814                     __end_of_lcd_set_cursor_y:
  3558                           	opt callstack 0
  3559                           
  3560 ;; *************** function _lcd_set_cursor_x *****************
  3561 ;; Defined at:
  3562 ;;		line 155 in file "lib_ili9341.c"
  3563 ;; Parameters:    Size  Location     Type
  3564 ;;  x               2    5[COMRAM] unsigned short 
  3565 ;; Auto vars:     Size  Location     Type
  3566 ;;		None
  3567 ;; Return value:  Size  Location     Type
  3568 ;;                  1    wreg      unsigned char 
  3569 ;; Registers used:
  3570 ;;		wreg, status,2, status,0, cstack
  3571 ;; Tracked objects:
  3572 ;;		On entry : 0/0
  3573 ;;		On exit  : 0/0
  3574 ;;		Unchanged: 0/0
  3575 ;; Data sizes:     COMRAM   BANK0   BANK1   BANK2   BANK3   BANK4   BANK5   BANK6   BANK7   BANK8   BANK9  BANK10  BANK1
      +1  BANK12  BANK13  BANK14
  3576 ;;      Params:         2       0       0       0       0       0       0       0       0       0       0       0       
      +0       0       0       0
  3577 ;;      Locals:         0       0       0       0       0       0       0       0       0       0       0       0       
      +0       0       0       0
  3578 ;;      Temps:          0       0       0       0       0       0       0       0       0       0       0       0       
      +0       0       0       0
  3579 ;;      Totals:         2       0       0       0       0       0       0       0       0       0       0       0       
      +0       0       0       0
  3580 ;;Total ram usage:        2 bytes
  3581 ;; Hardware stack levels used:    1
  3582 ;; Hardware stack levels required when called:    6
  3583 ;; This function calls:
  3584 ;;		_lcd_send
  3585 ;; This function is called by:
  3586 ;;		_lcd_set_cursor
  3587 ;; This function uses a non-reentrant model
  3588 ;;
  3589                           
  3590                           	psect	text8
  3591  000814                     __ptext8:
  3592                           	opt callstack 0
  3593  000814                     _lcd_set_cursor_x:
  3594                           	opt callstack 21
  3595  000814                     
  3596                           ;lib_ili9341.c: 155: uint8_t lcd_set_cursor_x(uint16_t x);lib_ili9341.c: 156: {;lib_ili9
      +                          341.c: 157:     if( x >= 320 )
  3597  000814  0E40               	movlw	64
  3598  000816  5C06               	subwf	lcd_set_cursor_x@x^0,w,c
  3599  000818  0E01               	movlw	1
  3600  00081A  5807               	subwfb	(lcd_set_cursor_x@x+1)^0,w,c
  3601  00081C  A0D8               	btfss	status,0,c
  3602  00081E  EF13  F004         	goto	u521
  3603  000822  EF15  F004         	goto	u520
  3604  000826                     u521:
  3605  000826  EF18  F004         	goto	l1747
  3606  00082A                     u520:
  3607  00082A                     
  3608                           ;lib_ili9341.c: 158:     {;lib_ili9341.c: 159:         return 1;
  3609  00082A  0E01               	movlw	1
  3610  00082C  EF2D  F004         	goto	l328
  3611  000830                     l1747:
  3612                           
  3613                           ;lib_ili9341.c: 162:     lcd_send(0, 0x2B);
  3614  000830  0E2B               	movlw	43
  3615  000832  6E04               	movwf	lcd_send@value^0,c
  3616  000834  0E00               	movlw	0
  3617  000836  ECCE  F004         	call	_lcd_send
  3618                           
  3619                           ;lib_ili9341.c: 163:     lcd_send(1, x >> 8);
  3620  00083A  5007               	movf	(lcd_set_cursor_x@x+1)^0,w,c
  3621  00083C  6E04               	movwf	lcd_send@value^0,c
  3622  00083E  0E01               	movlw	1
  3623  000840  ECCE  F004         	call	_lcd_send
  3624                           
  3625                           ;lib_ili9341.c: 164:     lcd_send(1, x & 0xFF);
  3626  000844  C006  F004         	movff	lcd_set_cursor_x@x,lcd_send@value
  3627  000848  0E01               	movlw	1
  3628  00084A  ECCE  F004         	call	_lcd_send
  3629                           
  3630                           ;lib_ili9341.c: 165:     lcd_send(0, 0x2c);
  3631  00084E  0E2C               	movlw	44
  3632  000850  6E04               	movwf	lcd_send@value^0,c
  3633  000852  0E00               	movlw	0
  3634  000854  ECCE  F004         	call	_lcd_send
  3635  000858                     
  3636                           ;lib_ili9341.c: 167:     return 0;
  3637  000858  0E00               	movlw	0
  3638  00085A                     l328:
  3639  00085A  0012               	return		;funcret
  3640  00085C                     __end_of_lcd_set_cursor_x:
  3641                           	opt callstack 0
  3642                           
  3643 ;; *************** function _lcd_draw_pixel *****************
  3644 ;; Defined at:
  3645 ;;		line 185 in file "lib_ili9341.c"
  3646 ;; Parameters:    Size  Location     Type
  3647 ;;  color           2    5[COMRAM] unsigned short 
  3648 ;; Auto vars:     Size  Location     Type
  3649 ;;		None
  3650 ;; Return value:  Size  Location     Type
  3651 ;;                  1    wreg      unsigned char 
  3652 ;; Registers used:
  3653 ;;		wreg, status,2, cstack
  3654 ;; Tracked objects:
  3655 ;;		On entry : 0/0
  3656 ;;		On exit  : 0/0
  3657 ;;		Unchanged: 0/0
  3658 ;; Data sizes:     COMRAM   BANK0   BANK1   BANK2   BANK3   BANK4   BANK5   BANK6   BANK7   BANK8   BANK9  BANK10  BANK1
      +1  BANK12  BANK13  BANK14
  3659 ;;      Params:         2       0       0       0       0       0       0       0       0       0       0       0       
      +0       0       0       0
  3660 ;;      Locals:         0       0       0       0       0       0       0       0       0       0       0       0       
      +0       0       0       0
  3661 ;;      Temps:          0       0       0       0       0       0       0       0       0       0       0       0       
      +0       0       0       0
  3662 ;;      Totals:         2       0       0       0       0       0       0       0       0       0       0       0       
      +0       0       0       0
  3663 ;;Total ram usage:        2 bytes
  3664 ;; Hardware stack levels used:    1
  3665 ;; Hardware stack levels required when called:    6
  3666 ;; This function calls:
  3667 ;;		_lcd_send
  3668 ;; This function is called by:
  3669 ;;		_lcd_fill
  3670 ;;		_lcd_draw_char
  3671 ;;		_lcd_draw_pixel_at
  3672 ;;		_lcd_fill_rect
  3673 ;; This function uses a non-reentrant model
  3674 ;;
  3675                           
  3676                           	psect	text9
  3677  0009CC                     __ptext9:
  3678                           	opt callstack 0
  3679  0009CC                     _lcd_draw_pixel:
  3680                           	opt callstack 22
  3681  0009CC                     
  3682                           ;lib_ili9341.c: 185: uint8_t lcd_draw_pixel(uint16_t color);lib_ili9341.c: 186: {;lib_il
      +                          i9341.c: 187:     lcd_send(1, color >> 8);
  3683  0009CC  5007               	movf	(lcd_draw_pixel@color+1)^0,w,c
  3684  0009CE  6E04               	movwf	lcd_send@value^0,c
  3685  0009D0  0E01               	movlw	1
  3686  0009D2  ECCE  F004         	call	_lcd_send
  3687                           
  3688                           ;lib_ili9341.c: 188:     lcd_send(1, color & 0xFF);
  3689  0009D6  C006  F004         	movff	lcd_draw_pixel@color,lcd_send@value
  3690  0009DA  0E01               	movlw	1
  3691  0009DC  ECCE  F004         	call	_lcd_send
  3692  0009E0  0012               	return		;funcret
  3693  0009E2                     __end_of_lcd_draw_pixel:
  3694                           	opt callstack 0
  3695                           
  3696 ;; *************** function _lcd_send *****************
  3697 ;; Defined at:
  3698 ;;		line 134 in file "lib_ili9341.c"
  3699 ;; Parameters:    Size  Location     Type
  3700 ;;  dc              1    wreg     _Bool 
  3701 ;;  value           1    3[COMRAM] unsigned char 
  3702 ;; Auto vars:     Size  Location     Type
  3703 ;;  dc              1    4[COMRAM] _Bool 
  3704 ;; Return value:  Size  Location     Type
  3705 ;;                  1    wreg      void 
  3706 ;; Registers used:
  3707 ;;		wreg, status,2, cstack
  3708 ;; Tracked objects:
  3709 ;;		On entry : 0/0
  3710 ;;		On exit  : 0/0
  3711 ;;		Unchanged: 0/0
  3712 ;; Data sizes:     COMRAM   BANK0   BANK1   BANK2   BANK3   BANK4   BANK5   BANK6   BANK7   BANK8   BANK9  BANK10  BANK1
      +1  BANK12  BANK13  BANK14
  3713 ;;      Params:         1       0       0       0       0       0       0       0       0       0       0       0       
      +0       0       0       0
  3714 ;;      Locals:         1       0       0       0       0       0       0       0       0       0       0       0       
      +0       0       0       0
  3715 ;;      Temps:          0       0       0       0       0       0       0       0       0       0       0       0       
      +0       0       0       0
  3716 ;;      Totals:         2       0       0       0       0       0       0       0       0       0       0       0       
      +0       0       0       0
  3717 ;;Total ram usage:        2 bytes
  3718 ;; Hardware stack levels used:    1
  3719 ;; Hardware stack levels required when called:    5
  3720 ;; This function calls:
  3721 ;;		_SPI_ExchangeByte
  3722 ;; This function is called by:
  3723 ;;		_lcd_init
  3724 ;;		_lcd_set_cursor_x
  3725 ;;		_lcd_set_cursor_y
  3726 ;;		_lcd_draw_pixel
  3727 ;; This function uses a non-reentrant model
  3728 ;;
  3729                           
  3730                           	psect	text10
  3731  00099C                     __ptext10:
  3732                           	opt callstack 0
  3733  00099C                     _lcd_send:
  3734                           	opt callstack 24
  3735                           
  3736                           ;incstack = 0
  3737                           ;lcd_send@dc stored from wreg
  3738  00099C  6E05               	movwf	lcd_send@dc^0,c
  3739  00099E                     
  3740                           ;lib_ili9341.c: 134: void lcd_send(_Bool dc, uint8_t value);lib_ili9341.c: 135: {;lib_il
      +                          i9341.c: 136:     LATEbits.LE0 = dc;
  3741  00099E  B005               	btfsc	lcd_send@dc^0,0,c
  3742  0009A0  D002               	bra	u515
  3743  0009A2  908D               	bcf	141,0,c	;volatile
  3744  0009A4  D001               	bra	u516
  3745  0009A6                     u515:
  3746  0009A6  808D               	bsf	141,0,c	;volatile
  3747  0009A8                     u516:
  3748  0009A8                     
  3749                           ;lib_ili9341.c: 138:     LATEbits.LE1 = 0;
  3750  0009A8  928D               	bcf	141,1,c	;volatile
  3751  0009AA                     
  3752                           ;lib_ili9341.c: 140:     SPI_ExchangeByte(value);
  3753  0009AA  5004               	movf	lcd_send@value^0,w,c
  3754  0009AC  ECB4  F004         	call	_SPI_ExchangeByte
  3755  0009B0                     
  3756                           ;lib_ili9341.c: 141:     LATEbits.LE1 = 1;
  3757  0009B0  828D               	bsf	141,1,c	;volatile
  3758  0009B2  0012               	return		;funcret
  3759  0009B4                     __end_of_lcd_send:
  3760                           	opt callstack 0
  3761                           
  3762 ;; *************** function _SPI_ExchangeByte *****************
  3763 ;; Defined at:
  3764 ;;		line 92 in file "mcc_generated_files/spi.c"
  3765 ;; Parameters:    Size  Location     Type
  3766 ;;  data            1    wreg     unsigned char 
  3767 ;; Auto vars:     Size  Location     Type
  3768 ;;  data            1    2[COMRAM] unsigned char 
  3769 ;; Return value:  Size  Location     Type
  3770 ;;                  1    wreg      unsigned char 
  3771 ;; Registers used:
  3772 ;;		wreg, status,2
  3773 ;; Tracked objects:
  3774 ;;		On entry : 0/0
  3775 ;;		On exit  : 0/0
  3776 ;;		Unchanged: 0/0
  3777 ;; Data sizes:     COMRAM   BANK0   BANK1   BANK2   BANK3   BANK4   BANK5   BANK6   BANK7   BANK8   BANK9  BANK10  BANK1
      +1  BANK12  BANK13  BANK14
  3778 ;;      Params:         0       0       0       0       0       0       0       0       0       0       0       0       
      +0       0       0       0
  3779 ;;      Locals:         1       0       0       0       0       0       0       0       0       0       0       0       
      +0       0       0       0
  3780 ;;      Temps:          0       0       0       0       0       0       0       0       0       0       0       0       
      +0       0       0       0
  3781 ;;      Totals:         1       0       0       0       0       0       0       0       0       0       0       0       
      +0       0       0       0
  3782 ;;Total ram usage:        1 bytes
  3783 ;; Hardware stack levels used:    1
  3784 ;; Hardware stack levels required when called:    4
  3785 ;; This function calls:
  3786 ;;		Nothing
  3787 ;; This function is called by:
  3788 ;;		_lcd_send
  3789 ;;		_SPI_WriteBlock
  3790 ;;		_SPI_ReadBlock
  3791 ;; This function uses a non-reentrant model
  3792 ;;
  3793                           
  3794                           	psect	text11
  3795  000968                     __ptext11:
  3796                           	opt callstack 0
  3797  000968                     _SPI_ExchangeByte:
  3798                           	opt callstack 24
  3799                           
  3800                           ;incstack = 0
  3801                           ;SPI_ExchangeByte@data stored from wreg
  3802  000968  6E03               	movwf	SPI_ExchangeByte@data^0,c
  3803  00096A                     
  3804                           ;mcc_generated_files/spi.c: 92: uint8_t SPI_ExchangeByte(uint8_t data);mcc_generated_fil
      +                          es/spi.c: 93: {;mcc_generated_files/spi.c: 94:     SSPBUF = data;
  3805  00096A  C003  FFC9         	movff	SPI_ExchangeByte@data,4041	;volatile
  3806  00096E                     l130:
  3807  00096E  A69E               	btfss	158,3,c	;volatile
  3808  000970  EFBC  F004         	goto	u11
  3809  000974  EFBE  F004         	goto	u10
  3810  000978                     u11:
  3811  000978  EFB7  F004         	goto	l130
  3812  00097C                     u10:
  3813  00097C                     
  3814                           ;mcc_generated_files/spi.c: 96:     PIR1bits.SSPIF = 0;
  3815  00097C  969E               	bcf	158,3,c	;volatile
  3816                           
  3817                           ;mcc_generated_files/spi.c: 97:     return SSPBUF;
  3818  00097E  50C9               	movf	201,w,c	;volatile
  3819  000980  0012               	return		;funcret
  3820  000982                     __end_of_SPI_ExchangeByte:
  3821                           	opt callstack 0
  3822                           
  3823 ;; *************** function _SYSTEM_Initialize *****************
  3824 ;; Defined at:
  3825 ;;		line 50 in file "mcc_generated_files/mcc.c"
  3826 ;; Parameters:    Size  Location     Type
  3827 ;;		None
  3828 ;; Auto vars:     Size  Location     Type
  3829 ;;		None
  3830 ;; Return value:  Size  Location     Type
  3831 ;;                  1    wreg      void 
  3832 ;; Registers used:
  3833 ;;		wreg, status,2, status,0, cstack
  3834 ;; Tracked objects:
  3835 ;;		On entry : 0/0
  3836 ;;		On exit  : 0/0
  3837 ;;		Unchanged: 0/0
  3838 ;; Data sizes:     COMRAM   BANK0   BANK1   BANK2   BANK3   BANK4   BANK5   BANK6   BANK7   BANK8   BANK9  BANK10  BANK1
      +1  BANK12  BANK13  BANK14
  3839 ;;      Params:         0       0       0       0       0       0       0       0       0       0       0       0       
      +0       0       0       0
  3840 ;;      Locals:         0       0       0       0       0       0       0       0       0       0       0       0       
      +0       0       0       0
  3841 ;;      Temps:          0       0       0       0       0       0       0       0       0       0       0       0       
      +0       0       0       0
  3842 ;;      Totals:         0       0       0       0       0       0       0       0       0       0       0       0       
      +0       0       0       0
  3843 ;;Total ram usage:        0 bytes
  3844 ;; Hardware stack levels used:    1
  3845 ;; Hardware stack levels required when called:    6
  3846 ;; This function calls:
  3847 ;;		_ADC_Initialize
  3848 ;;		_INTERRUPT_Initialize
  3849 ;;		_OSCILLATOR_Initialize
  3850 ;;		_PIN_MANAGER_Initialize
  3851 ;;		_SPI_Initialize
  3852 ;;		_TMR1_Initialize
  3853 ;; This function is called by:
  3854 ;;		_main
  3855 ;; This function uses a non-reentrant model
  3856 ;;
  3857                           
  3858                           	psect	text12
  3859  000982                     __ptext12:
  3860                           	opt callstack 0
  3861  000982                     _SYSTEM_Initialize:
  3862                           	opt callstack 24
  3863  000982                     
  3864                           ;mcc_generated_files/mcc.c: 53:     INTERRUPT_Initialize();
  3865  000982  EC26  F005         	call	_INTERRUPT_Initialize	;wreg free
  3866  000986                     
  3867                           ;mcc_generated_files/mcc.c: 54:     SPI_Initialize();
  3868  000986  EC06  F005         	call	_SPI_Initialize	;wreg free
  3869  00098A                     
  3870                           ;mcc_generated_files/mcc.c: 55:     PIN_MANAGER_Initialize();
  3871  00098A  EC2E  F004         	call	_PIN_MANAGER_Initialize	;wreg free
  3872  00098E                     
  3873                           ;mcc_generated_files/mcc.c: 56:     OSCILLATOR_Initialize();
  3874  00098E  EC0F  F005         	call	_OSCILLATOR_Initialize	;wreg free
  3875  000992                     
  3876                           ;mcc_generated_files/mcc.c: 57:     TMR1_Initialize();
  3877  000992  EC9F  F004         	call	_TMR1_Initialize	;wreg free
  3878  000996                     
  3879                           ;mcc_generated_files/mcc.c: 58:     ADC_Initialize();
  3880  000996  ECF1  F004         	call	_ADC_Initialize	;wreg free
  3881  00099A  0012               	return		;funcret
  3882  00099C                     __end_of_SYSTEM_Initialize:
  3883                           	opt callstack 0
  3884                           
  3885 ;; *************** function _TMR1_Initialize *****************
  3886 ;; Defined at:
  3887 ;;		line 63 in file "mcc_generated_files/tmr1.c"
  3888 ;; Parameters:    Size  Location     Type
  3889 ;;		None
  3890 ;; Auto vars:     Size  Location     Type
  3891 ;;		None
  3892 ;; Return value:  Size  Location     Type
  3893 ;;                  1    wreg      void 
  3894 ;; Registers used:
  3895 ;;		wreg, status,2, status,0
  3896 ;; Tracked objects:
  3897 ;;		On entry : 0/0
  3898 ;;		On exit  : 0/0
  3899 ;;		Unchanged: 0/0
  3900 ;; Data sizes:     COMRAM   BANK0   BANK1   BANK2   BANK3   BANK4   BANK5   BANK6   BANK7   BANK8   BANK9  BANK10  BANK1
      +1  BANK12  BANK13  BANK14
  3901 ;;      Params:         0       0       0       0       0       0       0       0       0       0       0       0       
      +0       0       0       0
  3902 ;;      Locals:         0       0       0       0       0       0       0       0       0       0       0       0       
      +0       0       0       0
  3903 ;;      Temps:          2       0       0       0       0       0       0       0       0       0       0       0       
      +0       0       0       0
  3904 ;;      Totals:         2       0       0       0       0       0       0       0       0       0       0       0       
      +0       0       0       0
  3905 ;;Total ram usage:        2 bytes
  3906 ;; Hardware stack levels used:    1
  3907 ;; Hardware stack levels required when called:    4
  3908 ;; This function calls:
  3909 ;;		Nothing
  3910 ;; This function is called by:
  3911 ;;		_SYSTEM_Initialize
  3912 ;; This function uses a non-reentrant model
  3913 ;;
  3914                           
  3915                           	psect	text13
  3916  00093E                     __ptext13:
  3917                           	opt callstack 0
  3918  00093E                     _TMR1_Initialize:
  3919                           	opt callstack 25
  3920  00093E                     
  3921                           ;mcc_generated_files/tmr1.c: 68:     T1GCON = 0x00;
  3922  00093E  0E00               	movlw	0
  3923  000940  6EAA               	movwf	170,c	;volatile
  3924                           
  3925                           ;mcc_generated_files/tmr1.c: 71:     TMR1H = 0x0B;
  3926  000942  0E0B               	movlw	11
  3927  000944  6ECF               	movwf	207,c	;volatile
  3928                           
  3929                           ;mcc_generated_files/tmr1.c: 74:     TMR1L = 0xDC;
  3930  000946  0EDC               	movlw	220
  3931  000948  6ECE               	movwf	206,c	;volatile
  3932  00094A                     
  3933                           ;mcc_generated_files/tmr1.c: 77:     PIR1bits.TMR1IF = 0;
  3934  00094A  909E               	bcf	158,0,c	;volatile
  3935  00094C                     
  3936                           ;mcc_generated_files/tmr1.c: 80:     timer1ReloadVal=(uint16_t)((TMR1H << 8) | TMR1L);
  3937  00094C  50CE               	movf	206,w,c	;volatile
  3938  00094E  CFCF F003          	movff	4047,??_TMR1_Initialize	;volatile
  3939  000952  6A04               	clrf	(??_TMR1_Initialize+1)^0,c
  3940  000954  C003  F004         	movff	??_TMR1_Initialize,??_TMR1_Initialize+1
  3941  000958  6A03               	clrf	??_TMR1_Initialize^0,c
  3942  00095A  1003               	iorwf	??_TMR1_Initialize^0,w,c
  3943  00095C  6E39               	movwf	_timer1ReloadVal^0,c	;volatile
  3944  00095E  5004               	movf	(??_TMR1_Initialize+1)^0,w,c
  3945  000960  6E3A               	movwf	(_timer1ReloadVal+1)^0,c	;volatile
  3946  000962                     
  3947                           ;mcc_generated_files/tmr1.c: 83:     T1CON = 0x31;
  3948  000962  0E31               	movlw	49
  3949  000964  6ECD               	movwf	205,c	;volatile
  3950  000966  0012               	return		;funcret
  3951  000968                     __end_of_TMR1_Initialize:
  3952                           	opt callstack 0
  3953                           
  3954 ;; *************** function _SPI_Initialize *****************
  3955 ;; Defined at:
  3956 ;;		line 62 in file "mcc_generated_files/spi.c"
  3957 ;; Parameters:    Size  Location     Type
  3958 ;;		None
  3959 ;; Auto vars:     Size  Location     Type
  3960 ;;		None
  3961 ;; Return value:  Size  Location     Type
  3962 ;;                  1    wreg      void 
  3963 ;; Registers used:
  3964 ;;		wreg, status,2
  3965 ;; Tracked objects:
  3966 ;;		On entry : 0/0
  3967 ;;		On exit  : 0/0
  3968 ;;		Unchanged: 0/0
  3969 ;; Data sizes:     COMRAM   BANK0   BANK1   BANK2   BANK3   BANK4   BANK5   BANK6   BANK7   BANK8   BANK9  BANK10  BANK1
      +1  BANK12  BANK13  BANK14
  3970 ;;      Params:         0       0       0       0       0       0       0       0       0       0       0       0       
      +0       0       0       0
  3971 ;;      Locals:         0       0       0       0       0       0       0       0       0       0       0       0       
      +0       0       0       0
  3972 ;;      Temps:          0       0       0       0       0       0       0       0       0       0       0       0       
      +0       0       0       0
  3973 ;;      Totals:         0       0       0       0       0       0       0       0       0       0       0       0       
      +0       0       0       0
  3974 ;;Total ram usage:        0 bytes
  3975 ;; Hardware stack levels used:    1
  3976 ;; Hardware stack levels required when called:    4
  3977 ;; This function calls:
  3978 ;;		Nothing
  3979 ;; This function is called by:
  3980 ;;		_SYSTEM_Initialize
  3981 ;; This function uses a non-reentrant model
  3982 ;;
  3983                           
  3984                           	psect	text14
  3985  000A0C                     __ptext14:
  3986                           	opt callstack 0
  3987  000A0C                     _SPI_Initialize:
  3988                           	opt callstack 25
  3989  000A0C                     
  3990                           ;mcc_generated_files/spi.c: 65:     SSPSTAT = 0x40;
  3991  000A0C  0E40               	movlw	64
  3992  000A0E  6EC7               	movwf	199,c	;volatile
  3993                           
  3994                           ;mcc_generated_files/spi.c: 66:     SSPCON1 = 0x00;
  3995  000A10  0E00               	movlw	0
  3996  000A12  6EC6               	movwf	198,c	;volatile
  3997                           
  3998                           ;mcc_generated_files/spi.c: 67:     SSPADD = 0x01;
  3999  000A14  0E01               	movlw	1
  4000  000A16  6EC8               	movwf	200,c	;volatile
  4001  000A18                     
  4002                           ;mcc_generated_files/spi.c: 68:     TRISCbits.TRISC3 = 0;
  4003  000A18  9694               	bcf	148,3,c	;volatile
  4004  000A1A                     
  4005                           ;mcc_generated_files/spi.c: 69:     SSPCON1bits.SSPEN = 0;
  4006  000A1A  9AC6               	bcf	198,5,c	;volatile
  4007  000A1C  0012               	return		;funcret
  4008  000A1E                     __end_of_SPI_Initialize:
  4009                           	opt callstack 0
  4010                           
  4011 ;; *************** function _PIN_MANAGER_Initialize *****************
  4012 ;; Defined at:
  4013 ;;		line 57 in file "mcc_generated_files/pin_manager.c"
  4014 ;; Parameters:    Size  Location     Type
  4015 ;;		None
  4016 ;; Auto vars:     Size  Location     Type
  4017 ;;		None
  4018 ;; Return value:  Size  Location     Type
  4019 ;;                  1    wreg      void 
  4020 ;; Registers used:
  4021 ;;		wreg, status,2, status,0, cstack
  4022 ;; Tracked objects:
  4023 ;;		On entry : 0/0
  4024 ;;		On exit  : 0/0
  4025 ;;		Unchanged: 0/0
  4026 ;; Data sizes:     COMRAM   BANK0   BANK1   BANK2   BANK3   BANK4   BANK5   BANK6   BANK7   BANK8   BANK9  BANK10  BANK1
      +1  BANK12  BANK13  BANK14
  4027 ;;      Params:         0       0       0       0       0       0       0       0       0       0       0       0       
      +0       0       0       0
  4028 ;;      Locals:         0       0       0       0       0       0       0       0       0       0       0       0       
      +0       0       0       0
  4029 ;;      Temps:          0       0       0       0       0       0       0       0       0       0       0       0       
      +0       0       0       0
  4030 ;;      Totals:         0       0       0       0       0       0       0       0       0       0       0       0       
      +0       0       0       0
  4031 ;;Total ram usage:        0 bytes
  4032 ;; Hardware stack levels used:    1
  4033 ;; Hardware stack levels required when called:    5
  4034 ;; This function calls:
  4035 ;;		_IOCB4_SetInterruptHandler
  4036 ;; This function is called by:
  4037 ;;		_SYSTEM_Initialize
  4038 ;; This function uses a non-reentrant model
  4039 ;;
  4040                           
  4041                           	psect	text15
  4042  00085C                     __ptext15:
  4043                           	opt callstack 0
  4044  00085C                     _PIN_MANAGER_Initialize:
  4045                           	opt callstack 24
  4046  00085C                     
  4047                           ;mcc_generated_files/pin_manager.c: 62:     LATE = 0x00;
  4048  00085C  0E00               	movlw	0
  4049  00085E  6E8D               	movwf	141,c	;volatile
  4050                           
  4051                           ;mcc_generated_files/pin_manager.c: 63:     LATD = 0x00;
  4052  000860  0E00               	movlw	0
  4053  000862  6E8C               	movwf	140,c	;volatile
  4054                           
  4055                           ;mcc_generated_files/pin_manager.c: 64:     LATA = 0x00;
  4056  000864  0E00               	movlw	0
  4057  000866  6E89               	movwf	137,c	;volatile
  4058                           
  4059                           ;mcc_generated_files/pin_manager.c: 65:     LATB = 0x00;
  4060  000868  0E00               	movlw	0
  4061  00086A  6E8A               	movwf	138,c	;volatile
  4062                           
  4063                           ;mcc_generated_files/pin_manager.c: 66:     LATC = 0x00;
  4064  00086C  0E00               	movlw	0
  4065  00086E  6E8B               	movwf	139,c	;volatile
  4066                           
  4067                           ;mcc_generated_files/pin_manager.c: 71:     TRISE = 0x04;
  4068  000870  0E04               	movlw	4
  4069  000872  6E96               	movwf	150,c	;volatile
  4070                           
  4071                           ;mcc_generated_files/pin_manager.c: 72:     TRISA = 0x0F;
  4072  000874  0E0F               	movlw	15
  4073  000876  6E92               	movwf	146,c	;volatile
  4074  000878                     
  4075                           ;mcc_generated_files/pin_manager.c: 73:     TRISB = 0xFF;
  4076  000878  6893               	setf	147,c	;volatile
  4077                           
  4078                           ;mcc_generated_files/pin_manager.c: 74:     TRISC = 0xD7;
  4079  00087A  0ED7               	movlw	215
  4080  00087C  6E94               	movwf	148,c	;volatile
  4081  00087E                     
  4082                           ;mcc_generated_files/pin_manager.c: 75:     TRISD = 0xFF;
  4083  00087E  6895               	setf	149,c	;volatile
  4084                           
  4085                           ;mcc_generated_files/pin_manager.c: 80:     ANCON0 = 0x87;
  4086  000880  0E87               	movlw	135
  4087  000882  010F               	movlb	15	; () banked
  4088  000884  6F5D               	movwf	93,b	;volatile
  4089                           
  4090                           ;mcc_generated_files/pin_manager.c: 81:     ANCON1 = 0x7D;
  4091  000886  0E7D               	movlw	125
  4092  000888  6F5C               	movwf	92,b	;volatile
  4093                           
  4094                           ;mcc_generated_files/pin_manager.c: 86:     WPUB = 0x00;
  4095  00088A  0E00               	movlw	0
  4096  00088C  6F5B               	movwf	91,b	;volatile
  4097  00088E                     
  4098                           ; BSR set to: 15
  4099                           ;mcc_generated_files/pin_manager.c: 87:     INTCON2bits.nRBPU = 1;
  4100  00088E  8EF1               	bsf	241,7,c	;volatile
  4101  000890                     
  4102                           ; BSR set to: 15
  4103                           ;mcc_generated_files/pin_manager.c: 95:     IOCBbits.IOCB4 = 1;
  4104  000890  895A               	bsf	90,4,b	;volatile
  4105  000892                     
  4106                           ; BSR set to: 15
  4107                           ;mcc_generated_files/pin_manager.c: 100:     IOCB4_SetInterruptHandler(IOCB4_DefaultInte
      +                          rruptHandler);
  4108  000892  0E50               	movlw	low _IOCB4_DefaultInterruptHandler
  4109  000894  6E03               	movwf	IOCB4_SetInterruptHandler@InterruptHandler^0,c
  4110  000896  0E0A               	movlw	high _IOCB4_DefaultInterruptHandler
  4111  000898  6E04               	movwf	(IOCB4_SetInterruptHandler@InterruptHandler+1)^0,c
  4112  00089A  EC21  F005         	call	_IOCB4_SetInterruptHandler	;wreg free
  4113  00089E                     
  4114                           ;mcc_generated_files/pin_manager.c: 103:     INTCONbits.RBIE = 1;
  4115  00089E  86F2               	bsf	242,3,c	;volatile
  4116  0008A0  0012               	return		;funcret
  4117  0008A2                     __end_of_PIN_MANAGER_Initialize:
  4118                           	opt callstack 0
  4119                           
  4120 ;; *************** function _IOCB4_SetInterruptHandler *****************
  4121 ;; Defined at:
  4122 ;;		line 135 in file "mcc_generated_files/pin_manager.c"
  4123 ;; Parameters:    Size  Location     Type
  4124 ;;  InterruptHan    2    2[COMRAM] PTR FTN()void 
  4125 ;;		 -> IOCB4_InterruptCall(1), IOCB4_DefaultInterruptHandler(1), 
  4126 ;; Auto vars:     Size  Location     Type
  4127 ;;		None
  4128 ;; Return value:  Size  Location     Type
  4129 ;;                  1    wreg      void 
  4130 ;; Registers used:
  4131 ;;		wreg, status,2, status,0
  4132 ;; Tracked objects:
  4133 ;;		On entry : 0/0
  4134 ;;		On exit  : 0/0
  4135 ;;		Unchanged: 0/0
  4136 ;; Data sizes:     COMRAM   BANK0   BANK1   BANK2   BANK3   BANK4   BANK5   BANK6   BANK7   BANK8   BANK9  BANK10  BANK1
      +1  BANK12  BANK13  BANK14
  4137 ;;      Params:         2       0       0       0       0       0       0       0       0       0       0       0       
      +0       0       0       0
  4138 ;;      Locals:         0       0       0       0       0       0       0       0       0       0       0       0       
      +0       0       0       0
  4139 ;;      Temps:          0       0       0       0       0       0       0       0       0       0       0       0       
      +0       0       0       0
  4140 ;;      Totals:         2       0       0       0       0       0       0       0       0       0       0       0       
      +0       0       0       0
  4141 ;;Total ram usage:        2 bytes
  4142 ;; Hardware stack levels used:    1
  4143 ;; Hardware stack levels required when called:    4
  4144 ;; This function calls:
  4145 ;;		Nothing
  4146 ;; This function is called by:
  4147 ;;		_PIN_MANAGER_Initialize
  4148 ;;		_main
  4149 ;; This function uses a non-reentrant model
  4150 ;;
  4151                           
  4152                           	psect	text16
  4153  000A42                     __ptext16:
  4154                           	opt callstack 0
  4155  000A42                     _IOCB4_SetInterruptHandler:
  4156                           	opt callstack 24
  4157  000A42                     
  4158                           ;mcc_generated_files/pin_manager.c: 136:     IOCB4_InterruptHandler = InterruptHandler;
  4159  000A42  C003  F03B         	movff	IOCB4_SetInterruptHandler@InterruptHandler,_IOCB4_InterruptHandler
  4160  000A46  C004  F03C         	movff	IOCB4_SetInterruptHandler@InterruptHandler+1,_IOCB4_InterruptHandler+1
  4161  000A4A  0012               	return		;funcret
  4162  000A4C                     __end_of_IOCB4_SetInterruptHandler:
  4163                           	opt callstack 0
  4164                           
  4165 ;; *************** function _OSCILLATOR_Initialize *****************
  4166 ;; Defined at:
  4167 ;;		line 61 in file "mcc_generated_files/mcc.c"
  4168 ;; Parameters:    Size  Location     Type
  4169 ;;		None
  4170 ;; Auto vars:     Size  Location     Type
  4171 ;;		None
  4172 ;; Return value:  Size  Location     Type
  4173 ;;                  1    wreg      void 
  4174 ;; Registers used:
  4175 ;;		wreg, status,2
  4176 ;; Tracked objects:
  4177 ;;		On entry : 0/0
  4178 ;;		On exit  : 0/0
  4179 ;;		Unchanged: 0/0
  4180 ;; Data sizes:     COMRAM   BANK0   BANK1   BANK2   BANK3   BANK4   BANK5   BANK6   BANK7   BANK8   BANK9  BANK10  BANK1
      +1  BANK12  BANK13  BANK14
  4181 ;;      Params:         0       0       0       0       0       0       0       0       0       0       0       0       
      +0       0       0       0
  4182 ;;      Locals:         0       0       0       0       0       0       0       0       0       0       0       0       
      +0       0       0       0
  4183 ;;      Temps:          0       0       0       0       0       0       0       0       0       0       0       0       
      +0       0       0       0
  4184 ;;      Totals:         0       0       0       0       0       0       0       0       0       0       0       0       
      +0       0       0       0
  4185 ;;Total ram usage:        0 bytes
  4186 ;; Hardware stack levels used:    1
  4187 ;; Hardware stack levels required when called:    4
  4188 ;; This function calls:
  4189 ;;		Nothing
  4190 ;; This function is called by:
  4191 ;;		_SYSTEM_Initialize
  4192 ;; This function uses a non-reentrant model
  4193 ;;
  4194                           
  4195                           	psect	text17
  4196  000A1E                     __ptext17:
  4197                           	opt callstack 0
  4198  000A1E                     _OSCILLATOR_Initialize:
  4199                           	opt callstack 25
  4200  000A1E                     
  4201                           ;mcc_generated_files/mcc.c: 64:     OSCCON = 0x62;
  4202  000A1E  0E62               	movlw	98
  4203  000A20  6ED3               	movwf	211,c	;volatile
  4204                           
  4205                           ;mcc_generated_files/mcc.c: 66:     OSCCON2 = 0x00;
  4206  000A22  0E00               	movlw	0
  4207  000A24  6ED2               	movwf	210,c	;volatile
  4208                           
  4209                           ;mcc_generated_files/mcc.c: 68:     OSCTUNE = 0x00;
  4210  000A26  0E00               	movlw	0
  4211  000A28  6E9B               	movwf	155,c	;volatile
  4212                           
  4213                           ;mcc_generated_files/mcc.c: 70:     REFOCON = 0x00;
  4214  000A2A  0E00               	movlw	0
  4215  000A2C  6E9A               	movwf	154,c	;volatile
  4216  000A2E  0012               	return		;funcret
  4217  000A30                     __end_of_OSCILLATOR_Initialize:
  4218                           	opt callstack 0
  4219                           
  4220 ;; *************** function _INTERRUPT_Initialize *****************
  4221 ;; Defined at:
  4222 ;;		line 52 in file "mcc_generated_files/interrupt_manager.c"
  4223 ;; Parameters:    Size  Location     Type
  4224 ;;		None
  4225 ;; Auto vars:     Size  Location     Type
  4226 ;;		None
  4227 ;; Return value:  Size  Location     Type
  4228 ;;                  1    wreg      void 
  4229 ;; Registers used:
  4230 ;;		None
  4231 ;; Tracked objects:
  4232 ;;		On entry : 0/0
  4233 ;;		On exit  : 0/0
  4234 ;;		Unchanged: 0/0
  4235 ;; Data sizes:     COMRAM   BANK0   BANK1   BANK2   BANK3   BANK4   BANK5   BANK6   BANK7   BANK8   BANK9  BANK10  BANK1
      +1  BANK12  BANK13  BANK14
  4236 ;;      Params:         0       0       0       0       0       0       0       0       0       0       0       0       
      +0       0       0       0
  4237 ;;      Locals:         0       0       0       0       0       0       0       0       0       0       0       0       
      +0       0       0       0
  4238 ;;      Temps:          0       0       0       0       0       0       0       0       0       0       0       0       
      +0       0       0       0
  4239 ;;      Totals:         0       0       0       0       0       0       0       0       0       0       0       0       
      +0       0       0       0
  4240 ;;Total ram usage:        0 bytes
  4241 ;; Hardware stack levels used:    1
  4242 ;; Hardware stack levels required when called:    4
  4243 ;; This function calls:
  4244 ;;		Nothing
  4245 ;; This function is called by:
  4246 ;;		_SYSTEM_Initialize
  4247 ;; This function uses a non-reentrant model
  4248 ;;
  4249                           
  4250                           	psect	text18
  4251  000A4C                     __ptext18:
  4252                           	opt callstack 0
  4253  000A4C                     _INTERRUPT_Initialize:
  4254                           	opt callstack 25
  4255  000A4C                     
  4256                           ;mcc_generated_files/interrupt_manager.c: 55:     RCONbits.IPEN = 0;
  4257  000A4C  9ED0               	bcf	208,7,c	;volatile
  4258  000A4E  0012               	return		;funcret
  4259  000A50                     __end_of_INTERRUPT_Initialize:
  4260                           	opt callstack 0
  4261                           
  4262 ;; *************** function _ADC_Initialize *****************
  4263 ;; Defined at:
  4264 ;;		line 62 in file "mcc_generated_files/adc.c"
  4265 ;; Parameters:    Size  Location     Type
  4266 ;;		None
  4267 ;; Auto vars:     Size  Location     Type
  4268 ;;		None
  4269 ;; Return value:  Size  Location     Type
  4270 ;;                  1    wreg      void 
  4271 ;; Registers used:
  4272 ;;		wreg, status,2
  4273 ;; Tracked objects:
  4274 ;;		On entry : 0/0
  4275 ;;		On exit  : 0/0
  4276 ;;		Unchanged: 0/0
  4277 ;; Data sizes:     COMRAM   BANK0   BANK1   BANK2   BANK3   BANK4   BANK5   BANK6   BANK7   BANK8   BANK9  BANK10  BANK1
      +1  BANK12  BANK13  BANK14
  4278 ;;      Params:         0       0       0       0       0       0       0       0       0       0       0       0       
      +0       0       0       0
  4279 ;;      Locals:         0       0       0       0       0       0       0       0       0       0       0       0       
      +0       0       0       0
  4280 ;;      Temps:          0       0       0       0       0       0       0       0       0       0       0       0       
      +0       0       0       0
  4281 ;;      Totals:         0       0       0       0       0       0       0       0       0       0       0       0       
      +0       0       0       0
  4282 ;;Total ram usage:        0 bytes
  4283 ;; Hardware stack levels used:    1
  4284 ;; Hardware stack levels required when called:    4
  4285 ;; This function calls:
  4286 ;;		Nothing
  4287 ;; This function is called by:
  4288 ;;		_SYSTEM_Initialize
  4289 ;; This function uses a non-reentrant model
  4290 ;;
  4291                           
  4292                           	psect	text19
  4293  0009E2                     __ptext19:
  4294                           	opt callstack 0
  4295  0009E2                     _ADC_Initialize:
  4296                           	opt callstack 25
  4297  0009E2                     
  4298                           ;mcc_generated_files/adc.c: 67:     ADCON0 = 0x01;
  4299  0009E2  0E01               	movlw	1
  4300  0009E4  6EC2               	movwf	194,c	;volatile
  4301                           
  4302                           ;mcc_generated_files/adc.c: 70:     ADCON1 = 0x80;
  4303  0009E6  0E80               	movlw	128
  4304  0009E8  6EC1               	movwf	193,c	;volatile
  4305                           
  4306                           ;mcc_generated_files/adc.c: 73:     ADCON2 = 0xAD;
  4307  0009EA  0EAD               	movlw	173
  4308  0009EC  6EC0               	movwf	192,c	;volatile
  4309                           
  4310                           ;mcc_generated_files/adc.c: 76:     ADRESH = 0x00;
  4311  0009EE  0E00               	movlw	0
  4312  0009F0  6EC4               	movwf	196,c	;volatile
  4313                           
  4314                           ;mcc_generated_files/adc.c: 79:     ADRESL = 0x00;
  4315  0009F2  0E00               	movlw	0
  4316  0009F4  6EC3               	movwf	195,c	;volatile
  4317  0009F6  0012               	return		;funcret
  4318  0009F8                     __end_of_ADC_Initialize:
  4319                           	opt callstack 0
  4320                           
  4321 ;; *************** function _SPI_Open *****************
  4322 ;; Defined at:
  4323 ;;		line 72 in file "mcc_generated_files/spi.c"
  4324 ;; Parameters:    Size  Location     Type
  4325 ;;  spiUniqueCon    1    wreg     enum E353
  4326 ;; Auto vars:     Size  Location     Type
  4327 ;;  spiUniqueCon    1    3[COMRAM] enum E353
  4328 ;; Return value:  Size  Location     Type
  4329 ;;                  1    wreg      _Bool 
  4330 ;; Registers used:
  4331 ;;		wreg, status,2, status,0, tblptrl, tblptrh, tblptru, prodl, prodh
  4332 ;; Tracked objects:
  4333 ;;		On entry : 0/0
  4334 ;;		On exit  : 0/0
  4335 ;;		Unchanged: 0/0
  4336 ;; Data sizes:     COMRAM   BANK0   BANK1   BANK2   BANK3   BANK4   BANK5   BANK6   BANK7   BANK8   BANK9  BANK10  BANK1
      +1  BANK12  BANK13  BANK14
  4337 ;;      Params:         0       0       0       0       0       0       0       0       0       0       0       0       
      +0       0       0       0
  4338 ;;      Locals:         1       0       0       0       0       0       0       0       0       0       0       0       
      +0       0       0       0
  4339 ;;      Temps:          1       0       0       0       0       0       0       0       0       0       0       0       
      +0       0       0       0
  4340 ;;      Totals:         2       0       0       0       0       0       0       0       0       0       0       0       
      +0       0       0       0
  4341 ;;Total ram usage:        2 bytes
  4342 ;; Hardware stack levels used:    1
  4343 ;; Hardware stack levels required when called:    4
  4344 ;; This function calls:
  4345 ;;		Nothing
  4346 ;; This function is called by:
  4347 ;;		_main
  4348 ;; This function uses a non-reentrant model
  4349 ;;
  4350                           
  4351                           	psect	text20
  4352  00064C                     __ptext20:
  4353                           	opt callstack 0
  4354  00064C                     _SPI_Open:
  4355                           	opt callstack 26
  4356                           
  4357                           ;incstack = 0
  4358                           ;SPI_Open@spiUniqueConfiguration stored from wreg
  4359  00064C  6E04               	movwf	SPI_Open@spiUniqueConfiguration^0,c
  4360  00064E                     
  4361                           ;mcc_generated_files/spi.c: 72: _Bool SPI_Open(spi_modes_t spiUniqueConfiguration);mcc_g
      +                          enerated_files/spi.c: 73: {;mcc_generated_files/spi.c: 74:     if(!SSPCON1bits.SSPEN)
  4362  00064E  BAC6               	btfsc	198,5,c	;volatile
  4363  000650  EF2C  F003         	goto	u211
  4364  000654  EF2E  F003         	goto	u210
  4365  000658                     u211:
  4366  000658  EF7D  F003         	goto	l124
  4367  00065C                     u210:
  4368  00065C                     
  4369                           ;mcc_generated_files/spi.c: 75:     {;mcc_generated_files/spi.c: 76:         SSPSTAT = s
      +                          pi_configuration[spiUniqueConfiguration].stat;
  4370  00065C  5004               	movf	SPI_Open@spiUniqueConfiguration^0,w,c
  4371  00065E  0D04               	mullw	4
  4372  000660  0E01               	movlw	1
  4373  000662  26F3               	addwf	243,f,c
  4374  000664  0E00               	movlw	0
  4375  000666  22F4               	addwfc	244,f,c
  4376  000668  0EEF               	movlw	low _spi_configuration
  4377  00066A  24F3               	addwf	243,w,c
  4378  00066C  6EF6               	movwf	tblptrl,c
  4379  00066E  0EFF               	movlw	high _spi_configuration
  4380  000670  20F4               	addwfc	244,w,c
  4381  000672  6EF7               	movwf	tblptrh,c
  4382  000674                     	if	1	;There are 3 active tblptr bytes
  4383  000674  6AF8               	clrf	tblptru,c
  4384  000676  0E00               	movlw	low (__mediumconst shr (0+16))
  4385  000678  22F8               	addwfc	tblptru,f,c
  4386  00067A                     	endif
  4387  00067A  0008               	tblrd		*
  4388  00067C  CFF5 FFC7          	movff	tablat,4039	;volatile
  4389                           
  4390                           ;mcc_generated_files/spi.c: 77:         SSPCON1 = spi_configuration[spiUniqueConfigurati
      +                          on].con1;
  4391  000680  5004               	movf	SPI_Open@spiUniqueConfiguration^0,w,c
  4392  000682  0D04               	mullw	4
  4393  000684  0EEF               	movlw	low _spi_configuration
  4394  000686  24F3               	addwf	243,w,c
  4395  000688  6EF6               	movwf	tblptrl,c
  4396  00068A  0EFF               	movlw	high _spi_configuration
  4397  00068C  20F4               	addwfc	244,w,c
  4398  00068E  6EF7               	movwf	tblptrh,c
  4399  000690                     	if	1	;There are 3 active tblptr bytes
  4400  000690  6AF8               	clrf	tblptru,c
  4401  000692  0E00               	movlw	low (__mediumconst shr (0+16))
  4402  000694  22F8               	addwfc	tblptru,f,c
  4403  000696                     	endif
  4404  000696  0008               	tblrd		*
  4405  000698  CFF5 FFC6          	movff	tablat,4038	;volatile
  4406  00069C                     
  4407                           ;mcc_generated_files/spi.c: 78:         SSPCON2 = 0x00;
  4408  00069C  0E00               	movlw	0
  4409  00069E  6EC5               	movwf	197,c	;volatile
  4410  0006A0                     
  4411                           ;mcc_generated_files/spi.c: 79:         SSPADD = spi_configuration[spiUniqueConfiguratio
      +                          n].add;
  4412  0006A0  5004               	movf	SPI_Open@spiUniqueConfiguration^0,w,c
  4413  0006A2  0D04               	mullw	4
  4414  0006A4  0E02               	movlw	2
  4415  0006A6  26F3               	addwf	243,f,c
  4416  0006A8  0E00               	movlw	0
  4417  0006AA  22F4               	addwfc	244,f,c
  4418  0006AC  0EEF               	movlw	low _spi_configuration
  4419  0006AE  24F3               	addwf	243,w,c
  4420  0006B0  6EF6               	movwf	tblptrl,c
  4421  0006B2  0EFF               	movlw	high _spi_configuration
  4422  0006B4  20F4               	addwfc	244,w,c
  4423  0006B6  6EF7               	movwf	tblptrh,c
  4424  0006B8                     	if	1	;There are 3 active tblptr bytes
  4425  0006B8  6AF8               	clrf	tblptru,c
  4426  0006BA  0E00               	movlw	low (__mediumconst shr (0+16))
  4427  0006BC  22F8               	addwfc	tblptru,f,c
  4428  0006BE                     	endif
  4429  0006BE  0008               	tblrd		*
  4430  0006C0  CFF5 FFC8          	movff	tablat,4040	;volatile
  4431  0006C4                     
  4432                           ;mcc_generated_files/spi.c: 80:         TRISCbits.TRISC3 = spi_configuration[spiUniqueCo
      +                          nfiguration].operation;
  4433  0006C4  5004               	movf	SPI_Open@spiUniqueConfiguration^0,w,c
  4434  0006C6  0D04               	mullw	4
  4435  0006C8  0E03               	movlw	3
  4436  0006CA  26F3               	addwf	243,f,c
  4437  0006CC  0E00               	movlw	0
  4438  0006CE  22F4               	addwfc	244,f,c
  4439  0006D0  0EEF               	movlw	low _spi_configuration
  4440  0006D2  24F3               	addwf	243,w,c
  4441  0006D4  6EF6               	movwf	tblptrl,c
  4442  0006D6  0EFF               	movlw	high _spi_configuration
  4443  0006D8  20F4               	addwfc	244,w,c
  4444  0006DA  6EF7               	movwf	tblptrh,c
  4445  0006DC                     	if	1	;There are 3 active tblptr bytes
  4446  0006DC  6AF8               	clrf	tblptru,c
  4447  0006DE  0E00               	movlw	low (__mediumconst shr (0+16))
  4448  0006E0  22F8               	addwfc	tblptru,f,c
  4449  0006E2                     	endif
  4450  0006E2  0008               	tblrd		*
  4451  0006E4  CFF5 F003          	movff	tablat,??_SPI_Open
  4452  0006E8  4603               	rlncf	??_SPI_Open^0,f,c
  4453  0006EA  4603               	rlncf	??_SPI_Open^0,f,c
  4454  0006EC  4603               	rlncf	??_SPI_Open^0,f,c
  4455  0006EE  5094               	movf	148,w,c	;volatile
  4456  0006F0  1803               	xorwf	??_SPI_Open^0,w,c
  4457  0006F2  0BF7               	andlw	-9
  4458  0006F4  1803               	xorwf	??_SPI_Open^0,w,c
  4459  0006F6  6E94               	movwf	148,c	;volatile
  4460  0006F8                     
  4461                           ;mcc_generated_files/spi.c: 81:         SSPCON1bits.SSPEN = 1;
  4462  0006F8  8AC6               	bsf	198,5,c	;volatile
  4463  0006FA                     l124:
  4464  0006FA  0012               	return		;funcret
  4465  0006FC                     __end_of_SPI_Open:
  4466                           	opt callstack 0
  4467                           
  4468 ;; *************** function _INTERRUPT_InterruptManager *****************
  4469 ;; Defined at:
  4470 ;;		line 58 in file "mcc_generated_files/interrupt_manager.c"
  4471 ;; Parameters:    Size  Location     Type
  4472 ;;		None
  4473 ;; Auto vars:     Size  Location     Type
  4474 ;;		None
  4475 ;; Return value:  Size  Location     Type
  4476 ;;                  1    wreg      void 
  4477 ;; Registers used:
  4478 ;;		wreg, status,2, status,0, pclath, tosl, cstack
  4479 ;; Tracked objects:
  4480 ;;		On entry : 0/0
  4481 ;;		On exit  : 0/0
  4482 ;;		Unchanged: 0/0
  4483 ;; Data sizes:     COMRAM   BANK0   BANK1   BANK2   BANK3   BANK4   BANK5   BANK6   BANK7   BANK8   BANK9  BANK10  BANK1
      +1  BANK12  BANK13  BANK14
  4484 ;;      Params:         0       0       0       0       0       0       0       0       0       0       0       0       
      +0       0       0       0
  4485 ;;      Locals:         0       0       0       0       0       0       0       0       0       0       0       0       
      +0       0       0       0
  4486 ;;      Temps:          2       0       0       0       0       0       0       0       0       0       0       0       
      +0       0       0       0
  4487 ;;      Totals:         2       0       0       0       0       0       0       0       0       0       0       0       
      +0       0       0       0
  4488 ;;Total ram usage:        2 bytes
  4489 ;; Hardware stack levels used:    1
  4490 ;; Hardware stack levels required when called:    3
  4491 ;; This function calls:
  4492 ;;		_PIN_MANAGER_IOC
  4493 ;; This function is called by:
  4494 ;;		Interrupt level 2
  4495 ;; This function uses a non-reentrant model
  4496 ;;
  4497                           
  4498                           	psect	intcode
  4499  000008                     __pintcode:
  4500                           	opt callstack 0
  4501  000008                     _INTERRUPT_InterruptManager:
  4502                           	opt callstack 21
  4503                           
  4504                           ;incstack = 0
  4505  000008  823D               	bsf	int$flags,1,c	;set compiler interrupt flag (level 2)
  4506  00000A  CFFA F001          	movff	pclath,??_INTERRUPT_InterruptManager
  4507  00000E  CFFB F002          	movff	pclatu,??_INTERRUPT_InterruptManager+1
  4508  000012                     
  4509                           ;mcc_generated_files/interrupt_manager.c: 61:     if(INTCONbits.RBIE == 1 && INTCONbits.
      +                          RBIF == 1)
  4510  000012  A6F2               	btfss	242,3,c	;volatile
  4511  000014  EF0E  F000         	goto	i2u33_41
  4512  000018  EF10  F000         	goto	i2u33_40
  4513  00001C                     i2u33_41:
  4514  00001C  EF19  F000         	goto	i2l42
  4515  000020                     i2u33_40:
  4516  000020  A0F2               	btfss	242,0,c	;volatile
  4517  000022  EF15  F000         	goto	i2u34_41
  4518  000026  EF17  F000         	goto	i2u34_40
  4519  00002A                     i2u34_41:
  4520  00002A  EF19  F000         	goto	i2l42
  4521  00002E                     i2u34_40:
  4522  00002E                     
  4523                           ;mcc_generated_files/interrupt_manager.c: 62:     {;mcc_generated_files/interrupt_manage
      +                          r.c: 63:         PIN_MANAGER_IOC();
  4524  00002E  ECDA  F004         	call	_PIN_MANAGER_IOC	;wreg free
  4525  000032                     i2l42:
  4526  000032  C002  FFFB         	movff	??_INTERRUPT_InterruptManager+1,pclatu
  4527  000036  C001  FFFA         	movff	??_INTERRUPT_InterruptManager,pclath
  4528  00003A  923D               	bcf	int$flags,1,c	;clear compiler interrupt flag (level 2)
  4529  00003C  0011               	retfie		f
  4530  00003E                     __end_of_INTERRUPT_InterruptManager:
  4531                           	opt callstack 0
  4532                           
  4533 ;; *************** function _PIN_MANAGER_IOC *****************
  4534 ;; Defined at:
  4535 ;;		line 107 in file "mcc_generated_files/pin_manager.c"
  4536 ;; Parameters:    Size  Location     Type
  4537 ;;		None
  4538 ;; Auto vars:     Size  Location     Type
  4539 ;;		None
  4540 ;; Return value:  Size  Location     Type
  4541 ;;                  1    wreg      void 
  4542 ;; Registers used:
  4543 ;;		wreg, status,2, status,0, pclath, tosl, cstack
  4544 ;; Tracked objects:
  4545 ;;		On entry : 0/0
  4546 ;;		On exit  : 0/0
  4547 ;;		Unchanged: 0/0
  4548 ;; Data sizes:     COMRAM   BANK0   BANK1   BANK2   BANK3   BANK4   BANK5   BANK6   BANK7   BANK8   BANK9  BANK10  BANK1
      +1  BANK12  BANK13  BANK14
  4549 ;;      Params:         0       0       0       0       0       0       0       0       0       0       0       0       
      +0       0       0       0
  4550 ;;      Locals:         0       0       0       0       0       0       0       0       0       0       0       0       
      +0       0       0       0
  4551 ;;      Temps:          0       0       0       0       0       0       0       0       0       0       0       0       
      +0       0       0       0
  4552 ;;      Totals:         0       0       0       0       0       0       0       0       0       0       0       0       
      +0       0       0       0
  4553 ;;Total ram usage:        0 bytes
  4554 ;; Hardware stack levels used:    1
  4555 ;; Hardware stack levels required when called:    2
  4556 ;; This function calls:
  4557 ;;		_IOCB4_ISR
  4558 ;; This function is called by:
  4559 ;;		_INTERRUPT_InterruptManager
  4560 ;; This function uses a non-reentrant model
  4561 ;;
  4562                           
  4563                           	psect	text22
  4564  0009B4                     __ptext22:
  4565                           	opt callstack 0
  4566  0009B4                     _PIN_MANAGER_IOC:
  4567                           	opt callstack 21
  4568  0009B4                     
  4569                           ;mcc_generated_files/pin_manager.c: 110:     if(IOCBbits.IOCB4 == 1)
  4570  0009B4  010F               	movlb	15	; () banked
  4571  0009B6  A95A               	btfss	90,4,b	;volatile
  4572  0009B8  EFE0  F004         	goto	i2u20_41
  4573  0009BC  EFE2  F004         	goto	i2u20_40
  4574  0009C0                     i2u20_41:
  4575  0009C0  EFE4  F004         	goto	i2l1261
  4576  0009C4                     i2u20_40:
  4577  0009C4                     
  4578                           ; BSR set to: 15
  4579                           ;mcc_generated_files/pin_manager.c: 111:     {;mcc_generated_files/pin_manager.c: 112:  
      +                                 IOCB4_ISR();
  4580  0009C4  EC89  F004         	call	_IOCB4_ISR	;wreg free
  4581  0009C8                     i2l1261:
  4582                           
  4583                           ;mcc_generated_files/pin_manager.c: 115:     INTCONbits.RBIF = 0;
  4584  0009C8  90F2               	bcf	242,0,c	;volatile
  4585  0009CA  0012               	return		;funcret
  4586  0009CC                     __end_of_PIN_MANAGER_IOC:
  4587                           	opt callstack 0
  4588                           
  4589 ;; *************** function _IOCB4_ISR *****************
  4590 ;; Defined at:
  4591 ;;		line 121 in file "mcc_generated_files/pin_manager.c"
  4592 ;; Parameters:    Size  Location     Type
  4593 ;;		None
  4594 ;; Auto vars:     Size  Location     Type
  4595 ;;		None
  4596 ;; Return value:  Size  Location     Type
  4597 ;;                  1    wreg      void 
  4598 ;; Registers used:
  4599 ;;		wreg, status,2, status,0, pclath, tosl, cstack
  4600 ;; Tracked objects:
  4601 ;;		On entry : 0/0
  4602 ;;		On exit  : 0/0
  4603 ;;		Unchanged: 0/0
  4604 ;; Data sizes:     COMRAM   BANK0   BANK1   BANK2   BANK3   BANK4   BANK5   BANK6   BANK7   BANK8   BANK9  BANK10  BANK1
      +1  BANK12  BANK13  BANK14
  4605 ;;      Params:         0       0       0       0       0       0       0       0       0       0       0       0       
      +0       0       0       0
  4606 ;;      Locals:         0       0       0       0       0       0       0       0       0       0       0       0       
      +0       0       0       0
  4607 ;;      Temps:          0       0       0       0       0       0       0       0       0       0       0       0       
      +0       0       0       0
  4608 ;;      Totals:         0       0       0       0       0       0       0       0       0       0       0       0       
      +0       0       0       0
  4609 ;;Total ram usage:        0 bytes
  4610 ;; Hardware stack levels used:    1
  4611 ;; Hardware stack levels required when called:    1
  4612 ;; This function calls:
  4613 ;;		Absolute function
  4614 ;;		_IOCB4_DefaultInterruptHandler
  4615 ;;		_IOCB4_InterruptCall
  4616 ;; This function is called by:
  4617 ;;		_PIN_MANAGER_IOC
  4618 ;; This function uses a non-reentrant model
  4619 ;;
  4620                           
  4621                           	psect	text23
  4622  000912                     __ptext23:
  4623                           	opt callstack 0
  4624  000912                     _IOCB4_ISR:
  4625                           	opt callstack 21
  4626  000912                     
  4627                           ;mcc_generated_files/pin_manager.c: 126:     if(IOCB4_InterruptHandler)
  4628  000912  503B               	movf	_IOCB4_InterruptHandler^0,w,c
  4629  000914  103C               	iorwf	(_IOCB4_InterruptHandler+1)^0,w,c
  4630  000916  B4D8               	btfsc	status,2,c
  4631  000918  EF90  F004         	goto	i2u8_41
  4632  00091C  EF92  F004         	goto	i2u8_40
  4633  000920                     i2u8_41:
  4634  000920  EF9E  F004         	goto	i2l93
  4635  000924                     i2u8_40:
  4636  000924                     
  4637                           ;mcc_generated_files/pin_manager.c: 127:     {;mcc_generated_files/pin_manager.c: 128:  
      +                                 IOCB4_InterruptHandler();
  4638  000924  D802               	call	i2u9_48
  4639  000926  EF9E  F004         	goto	i2u9_49
  4640  00092A                     i2u9_48:
  4641  00092A  0005               	push	
  4642  00092C  6EFA               	movwf	pclath,c
  4643  00092E  503B               	movf	_IOCB4_InterruptHandler^0,w,c
  4644  000930  6EFD               	movwf	tosl,c
  4645  000932  503C               	movf	(_IOCB4_InterruptHandler+1)^0,w,c
  4646  000934  6EFE               	movwf	tosh,c
  4647  000936  6AFF               	clrf	tosu,c
  4648  000938  50FA               	movf	pclath,w,c
  4649  00093A  0012               	return		;indir
  4650  00093C                     i2u9_49:
  4651  00093C                     i2l93:
  4652  00093C  0012               	return		;funcret
  4653  00093E                     __end_of_IOCB4_ISR:
  4654                           	opt callstack 0
  4655                           
  4656 ;; *************** function _IOCB4_DefaultInterruptHandler *****************
  4657 ;; Defined at:
  4658 ;;		line 142 in file "mcc_generated_files/pin_manager.c"
  4659 ;; Parameters:    Size  Location     Type
  4660 ;;		None
  4661 ;; Auto vars:     Size  Location     Type
  4662 ;;		None
  4663 ;; Return value:  Size  Location     Type
  4664 ;;                  1    wreg      void 
  4665 ;; Registers used:
  4666 ;;		None
  4667 ;; Tracked objects:
  4668 ;;		On entry : 0/0
  4669 ;;		On exit  : 0/0
  4670 ;;		Unchanged: 0/0
  4671 ;; Data sizes:     COMRAM   BANK0   BANK1   BANK2   BANK3   BANK4   BANK5   BANK6   BANK7   BANK8   BANK9  BANK10  BANK1
      +1  BANK12  BANK13  BANK14
  4672 ;;      Params:         0       0       0       0       0       0       0       0       0       0       0       0       
      +0       0       0       0
  4673 ;;      Locals:         0       0       0       0       0       0       0       0       0       0       0       0       
      +0       0       0       0
  4674 ;;      Temps:          0       0       0       0       0       0       0       0       0       0       0       0       
      +0       0       0       0
  4675 ;;      Totals:         0       0       0       0       0       0       0       0       0       0       0       0       
      +0       0       0       0
  4676 ;;Total ram usage:        0 bytes
  4677 ;; Hardware stack levels used:    1
  4678 ;; This function calls:
  4679 ;;		Nothing
  4680 ;; This function is called by:
  4681 ;;		_PIN_MANAGER_Initialize
  4682 ;;		_IOCB4_ISR
  4683 ;; This function uses a non-reentrant model
  4684 ;;
  4685                           
  4686                           	psect	text24
  4687  000A50                     __ptext24:
  4688                           	opt callstack 0
  4689  000A50                     _IOCB4_DefaultInterruptHandler:
  4690                           	opt callstack 21
  4691  000A50  0012               	return		;funcret
  4692  000A52                     __end_of_IOCB4_DefaultInterruptHandler:
  4693                           	opt callstack 0
  4694                           
  4695 ;; *************** function _IOCB4_InterruptCall *****************
  4696 ;; Defined at:
  4697 ;;		line 16 in file "main.c"
  4698 ;; Parameters:    Size  Location     Type
  4699 ;;		None
  4700 ;; Auto vars:     Size  Location     Type
  4701 ;;		None
  4702 ;; Return value:  Size  Location     Type
  4703 ;;                  1    wreg      void 
  4704 ;; Registers used:
  4705 ;;		None
  4706 ;; Tracked objects:
  4707 ;;		On entry : 0/0
  4708 ;;		On exit  : 0/0
  4709 ;;		Unchanged: 0/0
  4710 ;; Data sizes:     COMRAM   BANK0   BANK1   BANK2   BANK3   BANK4   BANK5   BANK6   BANK7   BANK8   BANK9  BANK10  BANK1
      +1  BANK12  BANK13  BANK14
  4711 ;;      Params:         0       0       0       0       0       0       0       0       0       0       0       0       
      +0       0       0       0
  4712 ;;      Locals:         0       0       0       0       0       0       0       0       0       0       0       0       
      +0       0       0       0
  4713 ;;      Temps:          0       0       0       0       0       0       0       0       0       0       0       0       
      +0       0       0       0
  4714 ;;      Totals:         0       0       0       0       0       0       0       0       0       0       0       0       
      +0       0       0       0
  4715 ;;Total ram usage:        0 bytes
  4716 ;; Hardware stack levels used:    1
  4717 ;; This function calls:
  4718 ;;		Nothing
  4719 ;; This function is called by:
  4720 ;;		_main
  4721 ;;		_IOCB4_ISR
  4722 ;; This function uses a non-reentrant model
  4723 ;;
  4724                           
  4725                           	psect	text25
  4726  000A30                     __ptext25:
  4727                           	opt callstack 0
  4728  000A30                     _IOCB4_InterruptCall:
  4729                           	opt callstack 21
  4730  000A30                     
  4731                           ;main.c: 18:     if(!PORTBbits.RB4){
  4732  000A30  B881               	btfsc	129,4,c	;volatile
  4733  000A32  EF1D  F005         	goto	i2u5_41
  4734  000A36  EF1F  F005         	goto	i2u5_40
  4735  000A3A                     i2u5_41:
  4736  000A3A  EF20  F005         	goto	i2l268
  4737  000A3E                     i2u5_40:
  4738  000A3E  8A89               	bsf	137,5,c	;volatile
  4739  000A40                     i2l268:
  4740  000A40  0012               	return		;funcret
  4741  000A42                     __end_of_IOCB4_InterruptCall:
  4742                           	opt callstack 0
  4743                           
  4744                           	psect	text26
  4745  000000                     __ptext26:
  4746                           	opt callstack 0
  4747  000000                     
  4748                           	psect	rparam
  4749  0000                     
  4750                           	psect	temp
  4751  00003D                     btemp:
  4752                           	opt callstack 0
  4753  00003D                     	ds	1
  4754  0000                     int$flags	set	btemp
  4755  0000                     wtemp8	set	btemp+1
  4756  0000                     ttemp5	set	btemp+1
  4757  0000                     ttemp6	set	btemp+4
  4758  0000                     ttemp7	set	btemp+8
  4759                           tosu	equ	0xFFF
  4760                           tosh	equ	0xFFE
  4761                           tosl	equ	0xFFD
  4762                           stkptr	equ	0xFFC
  4763                           pclatu	equ	0xFFB
  4764                           pclath	equ	0xFFA
  4765                           pcl	equ	0xFF9
  4766                           tblptru	equ	0xFF8
  4767                           tblptrh	equ	0xFF7
  4768                           tblptrl	equ	0xFF6
  4769                           tablat	equ	0xFF5
  4770                           prodh	equ	0xFF4
  4771                           prodl	equ	0xFF3
  4772                           indf0	equ	0xFEF
  4773                           postinc0	equ	0xFEE
  4774                           postdec0	equ	0xFED
  4775                           preinc0	equ	0xFEC
  4776                           plusw0	equ	0xFEB
  4777                           fsr0h	equ	0xFEA
  4778                           fsr0l	equ	0xFE9
  4779                           wreg	equ	0xFE8
  4780                           indf1	equ	0xFE7
  4781                           postinc1	equ	0xFE6
  4782                           postdec1	equ	0xFE5
  4783                           preinc1	equ	0xFE4
  4784                           plusw1	equ	0xFE3
  4785                           fsr1h	equ	0xFE2
  4786                           fsr1l	equ	0xFE1
  4787                           bsr	equ	0xFE0
  4788                           indf2	equ	0xFDF
  4789                           postinc2	equ	0xFDE
  4790                           postdec2	equ	0xFDD
  4791                           preinc2	equ	0xFDC
  4792                           plusw2	equ	0xFDB
  4793                           fsr2h	equ	0xFDA
  4794                           fsr2l	equ	0xFD9
  4795                           status	equ	0xFD8


Data Sizes:
    Strings     12
    Constant    3536
    Data        0
    BSS         5
    Persistent  4
    Stack       0

Auto Spaces:
    Space          Size  Autos    Used
    COMRAM           94     51      60
    BANK0           160      0       0
    BANK1           256      0       0
    BANK2           256      0       0
    BANK3           256      0       0
    BANK4           256      0       0
    BANK5           256      0       0
    BANK6           256      0       0
    BANK7           256      0       0
    BANK8           256      0       0
    BANK9           256      0       0
    BANK10          256      0       0
    BANK11          256      0       0
    BANK12          256      0       0
    BANK13          256      0       0
    BANK14           65      0       0

Pointer List with Targets:

    ADC_InterruptHandler	PTR FTN()void  size(2) Largest target is 1
		 -> Absolute function(), 

    lcd_draw_string@pS	PTR const unsigned char  size(2) Largest target is 12
		 -> STR_1(CODE[12]), 

    IOCB4_SetInterruptHandler@InterruptHandler	PTR FTN()void  size(2) Largest target is 1
		 -> IOCB4_InterruptCall(), IOCB4_DefaultInterruptHandler(), 

    IOCB4_InterruptHandler	PTR FTN()void  size(2) Largest target is 1
		 -> IOCB4_InterruptCall(), Absolute function(), IOCB4_DefaultInterruptHandler(), 


Critical Paths under _main in COMRAM

    _main->_lcd_draw_string
    _lcd_init->_lcd_fill
    _lcd_fill->_lcd_set_cursor
    _lcd_draw_string->_lcd_draw_char
    _lcd_draw_char->_lcd_set_cursor
    _lcd_set_cursor->_lcd_set_cursor_x
    _lcd_set_cursor->_lcd_set_cursor_y
    _lcd_set_cursor_y->_lcd_send
    _lcd_set_cursor_x->_lcd_send
    _lcd_draw_pixel->_lcd_send
    _lcd_send->_SPI_ExchangeByte
    _SYSTEM_Initialize->_TMR1_Initialize
    _PIN_MANAGER_Initialize->_IOCB4_SetInterruptHandler

Critical Paths under _INTERRUPT_InterruptManager in COMRAM

    None.

Critical Paths under _main in BANK0

    None.

Critical Paths under _INTERRUPT_InterruptManager in BANK0

    None.

Critical Paths under _main in BANK1

    None.

Critical Paths under _INTERRUPT_InterruptManager in BANK1

    None.

Critical Paths under _main in BANK2

    None.

Critical Paths under _INTERRUPT_InterruptManager in BANK2

    None.

Critical Paths under _main in BANK3

    None.

Critical Paths under _INTERRUPT_InterruptManager in BANK3

    None.

Critical Paths under _main in BANK4

    None.

Critical Paths under _INTERRUPT_InterruptManager in BANK4

    None.

Critical Paths under _main in BANK5

    None.

Critical Paths under _INTERRUPT_InterruptManager in BANK5

    None.

Critical Paths under _main in BANK6

    None.

Critical Paths under _INTERRUPT_InterruptManager in BANK6

    None.

Critical Paths under _main in BANK7

    None.

Critical Paths under _INTERRUPT_InterruptManager in BANK7

    None.

Critical Paths under _main in BANK8

    None.

Critical Paths under _INTERRUPT_InterruptManager in BANK8

    None.

Critical Paths under _main in BANK9

    None.

Critical Paths under _INTERRUPT_InterruptManager in BANK9

    None.

Critical Paths under _main in BANK10

    None.

Critical Paths under _INTERRUPT_InterruptManager in BANK10

    None.

Critical Paths under _main in BANK11

    None.

Critical Paths under _INTERRUPT_InterruptManager in BANK11

    None.

Critical Paths under _main in BANK12

    None.

Critical Paths under _INTERRUPT_InterruptManager in BANK12

    None.

Critical Paths under _main in BANK13

    None.

Critical Paths under _INTERRUPT_InterruptManager in BANK13

    None.

Critical Paths under _main in BANK14

    None.

Critical Paths under _INTERRUPT_InterruptManager in BANK14

    None.

Call Graph Tables:

 ---------------------------------------------------------------------------------
 (Depth) Function   	        Calls       Base Space   Used Autos Params    Refs
 ---------------------------------------------------------------------------------
 (0) _main                                                 0     0      0   56686
          _IOCB4_SetInterruptHandler
                           _SPI_Open
                  _SYSTEM_Initialize
                    _lcd_draw_string
                           _lcd_init
 ---------------------------------------------------------------------------------
 (1) _lcd_init                                             0     0      0   31259
                           _lcd_fill
                           _lcd_send
                            _msDelay
 ---------------------------------------------------------------------------------
 (2) _msDelay                                              3     3      0      30
                                              2 COMRAM     3     3      0
 ---------------------------------------------------------------------------------
 (2) _lcd_fill                                             6     4      2   23798
                                             11 COMRAM     6     4      2
                     _lcd_draw_pixel
                     _lcd_set_cursor
 ---------------------------------------------------------------------------------
 (1) _lcd_draw_string                                     18     8     10   25019
                                             33 COMRAM    18     8     10
                      _lcd_draw_char
 ---------------------------------------------------------------------------------
 (2) _lcd_draw_char                                       22    12     10   24413
                                             11 COMRAM    22    12     10
                     _lcd_draw_pixel
                     _lcd_set_cursor
 ---------------------------------------------------------------------------------
 (3) _lcd_set_cursor                                       4     0      4   15798
                                              7 COMRAM     4     0      4
                   _lcd_set_cursor_x
                   _lcd_set_cursor_y
 ---------------------------------------------------------------------------------
 (4) _lcd_set_cursor_y                                     2     0      2    7573
                                              5 COMRAM     2     0      2
                           _lcd_send
 ---------------------------------------------------------------------------------
 (4) _lcd_set_cursor_x                                     2     0      2    7573
                                              5 COMRAM     2     0      2
                           _lcd_send
 ---------------------------------------------------------------------------------
 (3) _lcd_draw_pixel                                       2     0      2    7855
                                              5 COMRAM     2     0      2
                           _lcd_send
 ---------------------------------------------------------------------------------
 (2) _lcd_send                                             2     1      1    7431
                                              3 COMRAM     2     1      1
                   _SPI_ExchangeByte
 ---------------------------------------------------------------------------------
 (3) _SPI_ExchangeByte                                     1     1      0      15
                                              2 COMRAM     1     1      0
 ---------------------------------------------------------------------------------
 (1) _SYSTEM_Initialize                                    0     0      0     174
                     _ADC_Initialize
               _INTERRUPT_Initialize
              _OSCILLATOR_Initialize
             _PIN_MANAGER_Initialize
                     _SPI_Initialize
                    _TMR1_Initialize
 ---------------------------------------------------------------------------------
 (2) _TMR1_Initialize                                      2     2      0       0
                                              2 COMRAM     2     2      0
 ---------------------------------------------------------------------------------
 (2) _SPI_Initialize                                       0     0      0       0
 ---------------------------------------------------------------------------------
 (2) _PIN_MANAGER_Initialize                               0     0      0     174
          _IOCB4_SetInterruptHandler
 ---------------------------------------------------------------------------------
 (3) _IOCB4_SetInterruptHandler                            2     0      2     174
                                              2 COMRAM     2     0      2
 ---------------------------------------------------------------------------------
 (2) _OSCILLATOR_Initialize                                0     0      0       0
 ---------------------------------------------------------------------------------
 (2) _INTERRUPT_Initialize                                 0     0      0       0
 ---------------------------------------------------------------------------------
 (2) _ADC_Initialize                                       0     0      0       0
 ---------------------------------------------------------------------------------
 (1) _SPI_Open                                             2     2      0      60
                                              2 COMRAM     2     2      0
 ---------------------------------------------------------------------------------
 Estimated maximum stack depth 4
 ---------------------------------------------------------------------------------
 (Depth) Function   	        Calls       Base Space   Used Autos Params    Refs
 ---------------------------------------------------------------------------------
 (7) _INTERRUPT_InterruptManager                           2     2      0       0
                                              0 COMRAM     2     2      0
                    _PIN_MANAGER_IOC
 ---------------------------------------------------------------------------------
 (8) _PIN_MANAGER_IOC                                      0     0      0       0
                          _IOCB4_ISR
 ---------------------------------------------------------------------------------
 (9) _IOCB4_ISR                                            0     0      0       0
                   Absolute function *
      _IOCB4_DefaultInterruptHandler *
                _IOCB4_InterruptCall *
 ---------------------------------------------------------------------------------
 (10) _IOCB4_InterruptCall                                 0     0      0       0
 ---------------------------------------------------------------------------------
 (10) _IOCB4_DefaultInterruptHandler                       0     0      0       0
 ---------------------------------------------------------------------------------
 (10) Absolute function(Fake)                              0     0      0       0
 ---------------------------------------------------------------------------------
 Estimated maximum stack depth 10
 ---------------------------------------------------------------------------------

 Call Graph Graphs:

 _main (ROOT)
   _IOCB4_SetInterruptHandler
   _SPI_Open
   _SYSTEM_Initialize
     _ADC_Initialize
     _INTERRUPT_Initialize
     _OSCILLATOR_Initialize
     _PIN_MANAGER_Initialize
       _IOCB4_SetInterruptHandler
     _SPI_Initialize
     _TMR1_Initialize
   _lcd_draw_string
     _lcd_draw_char
       _lcd_draw_pixel
         _lcd_send
           _SPI_ExchangeByte
       _lcd_set_cursor
         _lcd_set_cursor_x
           _lcd_send
             _SPI_ExchangeByte
         _lcd_set_cursor_y
           _lcd_send
             _SPI_ExchangeByte
   _lcd_init
     _lcd_fill
       _lcd_draw_pixel
         _lcd_send
           _SPI_ExchangeByte
       _lcd_set_cursor
         _lcd_set_cursor_x
           _lcd_send
             _SPI_ExchangeByte
         _lcd_set_cursor_y
           _lcd_send
             _SPI_ExchangeByte
     _lcd_send
       _SPI_ExchangeByte
     _msDelay

 _INTERRUPT_InterruptManager (ROOT)
   _PIN_MANAGER_IOC
     _IOCB4_ISR
       Absolute function(Fake) *
       _IOCB4_DefaultInterruptHandler *
       _IOCB4_InterruptCall *

 Address spaces:
Name               Size   Autos  Total    Cost      Usage
BIGRAM             E40      0       0      35        0.0%
EEDATA             400      0       0       0        0.0%
BITBANK13          100      0       0      31        0.0%
BANK13             100      0       0      32        0.0%
BITBANK12          100      0       0      29        0.0%
BANK12             100      0       0      30        0.0%
BITBANK11          100      0       0      27        0.0%
BANK11             100      0       0      28        0.0%
BITBANK10          100      0       0      25        0.0%
BANK10             100      0       0      26        0.0%
BITBANK9           100      0       0      23        0.0%
BANK9              100      0       0      24        0.0%
BITBANK8           100      0       0      21        0.0%
BANK8              100      0       0      22        0.0%
BITBANK7           100      0       0      19        0.0%
BANK7              100      0       0      20        0.0%
BITBANK6           100      0       0      17        0.0%
BANK6              100      0       0      18        0.0%
BITBANK5           100      0       0      15        0.0%
BANK5              100      0       0      16        0.0%
BITBANK4           100      0       0      13        0.0%
BANK4              100      0       0      14        0.0%
BITBANK3           100      0       0      11        0.0%
BANK3              100      0       0      12        0.0%
BITBANK2           100      0       0       9        0.0%
BANK2              100      0       0      10        0.0%
BITBANK1           100      0       0       7        0.0%
BANK1              100      0       0       8        0.0%
BITBANK0            A0      0       0       4        0.0%
BANK0               A0      0       0       5        0.0%
BITCOMRAM           5E      0       0       0        0.0%
COMRAM              5E     33      3C       1       63.8%
BITBANK14           41      0       0      33        0.0%
BANK14              41      0       0      34        0.0%
BITSFR_2             0      0       0     200        0.0%
SFR_2                0      0       0     200        0.0%
BITSFR_1             0      0       0     200        0.0%
SFR_1                0      0       0     200        0.0%
BITSFR               0      0       0     200        0.0%
SFR                  0      0       0     200        0.0%
STACK                0      0       0       2        0.0%
NULL                 0      0       0       0        0.0%
ABS                  0      0      3C       6        0.0%
DATA                 0      0      3C       3        0.0%
CODE                 0      0       0       0        0.0%


Microchip Technology PIC18 Macro Assembler V2.10 build 88905656 
Symbol Table                                                                                   Mon Oct 05 16:00:33 2020

                           _SPI_Initialize 0A0C                                _SSPSTATbits 000FC7  
                                       l23 099A                                         l26 0A2E  
                                       l35 0A4E                                         l85 08A0  
                                       l96 0A4A                                         u10 097C  
                                       u11 0978         __size_of_IOCB4_SetInterruptHandler 000A  
                              __CFG_BORV$3 000000                __end_of_IOCB4_InterruptCall 0A42  
               ?_IOCB4_SetInterruptHandler 0003                               __CFG_CP0$OFF 000000  
                             __CFG_CP1$OFF 000000                               __CFG_CP2$OFF 000000  
                             __CFG_CP3$OFF 000000                                        l120 0A1C  
                                      l130 096E                                        l124 06FA  
                                      l132 097C                                        l133 0980  
                                      l216 0966                                        l306 0910  
                                      l315 03C6                                        l332 0812  
                                      l324 08E2                                        l318 09B2  
                                      l335 09E0                                        l328 085A  
                                      l408 0540                                        l417 064A  
                                      l273 07C4                                        l274 07C4  
                                      l179 09F6                                        l339 077C  
                             __CFG_CPB$OFF 000000                                        u100 0910  
                                      u101 090C                                        u210 065C  
                                      u211 0658                                        u520 082A  
                                      u521 0826                                        u530 07E2  
                                      u610 04C6                               __CFG_CPD$OFF 000000  
                                      u515 09A6                                        u531 07DE  
                                      u611 04C2                                        u516 09A8  
                                      u540 08BE                                        u620 04F4  
                                      u604 04A6                                        u541 08BA  
                                      u621 04F0                                        u605 04A0  
                                      u550 08DA                                        u630 0506  
                                      u551 08D6                                        u631 0502  
                                      u640 0540                                        u560 0730  
                                      u641 053C                                        u561 072C  
                                      u650 05D0                                        u570 075A  
                                      u651 05CC                                        u571 0756  
                                      u660 064A                                        u580 077C  
                                      u661 0646                                        u581 0778  
                                      u857 08F4                            _timer1ReloadVal 0039  
                                      tosl 000FFD                                        wreg 000FE8  
                          ?_lcd_set_cursor 0008                         __size_of_IOCB4_ISR 002C  
                                     l2001 02FA                                       l2011 032C  
                                     l2003 0304                                       l2021 035E  
                                     l2013 0336                                       l2005 030E  
                                     l2101 0788                                       l1151 0A18  
                                     l2031 0390                                       l2023 0368  
                                     l2015 0340                                       l2007 0318  
                                     l2103 078C                                       l1153 0A1A  
                                     l2041 0542                                       l2033 039A  
                                     l2025 0372                                       l2017 034A  
                                     l2009 0322                                       l2105 0798  
                                     l1147 0A4C                                       l1171 093E  
                                     l2051 05D0                                       l2043 0546  
                                     l2035 03AA                                       l2027 037C  
                                     l2019 0354                                       l2107 079A  
                                     l1149 0A0C                                       l1173 094A  
                                     l1093 096A                                       l2053 05FC  
                                     l2045 055A                                       l2037 03B4  
                                     l2029 0386                                       l1271 06C4  
                                     l1263 064E                                       l1175 094C  
                                     l2055 0628                                       l2047 0594  
                                     l1191 08FE                                       l2039 03BA  
                                     l1273 06F8                                       l1265 065C  
                                     l1169 0A1E                                       l1177 0962  
                                     l2049 0598                                       l2057 062C  
                                     l1185 08E6                                       l1267 069C  
                                     l1179 09E2                                       l1187 08EE  
                                     l1269 06A0                                       l1189 08FC  
                                     l2097 077E                                       l1803 0734  
                                     l2099 0782                                       l1733 099E  
                                     l1741 0814                                       l1805 0740  
                                     l1901 0106                                       l1735 09A8  
                                     l1743 082A                                       l1831 041C  
                                     l1815 03C8                                       l1807 075A  
                                     l1911 0138                                       l1903 0110  
                                     l1737 09AA                                       l1761 0810  
                                     l1753 07CC                                       l1841 04F4  
                                     l1833 04C6                                       l1825 0418  
                                     l1817 03D0                                       l1809 0762  
                                     l1921 016A                                       l1913 0142  
                                     l1905 011A                                       l1851 0986  
                                     l1739 09B0                                       l1747 0830  
                                     l1755 07E2                                       l1771 08DA  
                                     l1843 04F6                                       l1835 04D6  
                                     l1819 0414                                       l1931 019C  
                                     l1923 0174                                       l1915 014C  
                                     l1907 0124                                       l1765 0A42  
                                     l1853 098A                                       l1749 0858  
                                     l1845 0506                                       l1837 04E2  
                                     l1941 01CE                                       l1933 01A6  
                                     l1925 017E                                       l1917 0156  
                                     l1909 012E                                       l1861 0042  
                                     l1791 0890                                       l1783 085C  
                                     l1855 098E                                       l1759 07E8  
                                     l1775 08E0                                       l1767 08A2  
                                     l1839 04E4                                       l1847 0508  
                                     l1951 0200                                       l1943 01D8  
                                     l1935 01B0                                       l1927 0188  
                                     l1919 0160                                       l1871 0070  
                                     l1863 004C                                       l1793 0892  
                                     l1785 0878                                       l1857 0992  
                                     l1849 0982                                       l1769 08BE  
                                     l1961 0232                                       l1953 020A  
                                     l1945 01E2                                       l1937 01BA  
                                     l1929 0192                                       l1881 00A2  
                                     l1873 007A                                       l1865 0052  
                                     l1795 089E                                       l1787 087E  
                                     l1859 0996                                       l1779 09CC  
                                     l1971 0264                                       l1963 023C  
                                     l1955 0214                                       l1947 01EC  
                                     l1939 01C4                                       l1891 00D4  
                                     l1883 00AC                                       l1875 0084  
                                     l1867 005C                                       l1789 088E  
                                     l1797 06FC                                       l1981 0296  
                                     l1973 026E                                       l1965 0246  
                                     l1957 021E                                       l1949 01F6  
                                     l1893 00DE                                       l1885 00B6  
                                     l1877 008E                                       l1869 0066  
                                     l1799 070C                                       l1991 02C8  
                                     l1983 02A0                                       l1975 0278  
                                     l1967 0250                                       l1959 0228  
                                     l1895 00E8                                       l1887 00C0  
                                     l1879 0098                                       l1993 02D2  
                                     l1985 02AA                                       l1977 0282  
                                     l1969 025A                                       l1897 00F2  
                                     l1889 00CA                                       l1995 02DC  
                                     l1987 02B4                                       l1979 028C  
                                     l1899 00FC                                       l1997 02E6  
                                     l1989 02BE                                       l1999 02F0  
                                     STR_1 FFF3                                       _LATA 000F89  
                                     _LATB 000F8A                                       _LATC 000F8B  
                                     _LATD 000F8C                                       _LATE 000F8D  
                                     i2l42 0032                                       i2l93 093C  
                                     i2l89 09CA                                       i2l99 0A50  
                                     _WPUB 000F5B                                       _main 077E  
                                     _font F223                                       _mode 0038  
                                     btemp 003D                                       prodh 000FF4  
                                     prodl 000FF3                                       start 003E  
                            __CFG_IESO$OFF 000000                     __end_of_SPI_Initialize 0A1E  
                            lcd_fill@width 0010                              __CFG_MCLRE$ON 000000  
                             ___param_bank 000000             __size_of_OSCILLATOR_Initialize 0012  
            __end_of_OSCILLATOR_Initialize 0A30                                      ?_main 0001  
        __end_of_IOCB4_SetInterruptHandler 0A4C                                      _T1CON 000FCD  
                                    i2l266 0A3E                                      i2l268 0A40  
                                    _TMR1H 000FCF                                      _TMR1L 000FCE  
                                    _TRISA 000F92                                      _TRISB 000F93  
                                    _TRISC 000F94                                      _TRISD 000F95  
                                    _TRISE 000F96                              __CFG_WRT0$OFF 000000  
                          ??_lcd_draw_char 0016                              __CFG_WRT1$OFF 000000  
                            __CFG_WRT2$OFF 000000                              __CFG_WRT3$OFF 000000  
                           __CFG_EBTR0$OFF 000000                             __CFG_FCMEN$OFF 000000  
                           __CFG_EBTR1$OFF 000000                             __CFG_EBTR2$OFF 000000  
                           __CFG_EBTR3$OFF 000000                              __CFG_WRTB$OFF 000000  
                            __CFG_WRTC$OFF 000000                              __CFG_WRTD$OFF 000000  
                          __end_of_msDelay 0912                             __CFG_EBTRB$OFF 000000  
                  __end_of_PIN_MANAGER_IOC 09CC                           __end_of_SPI_Open 06FC  
                  __end_of_TMR1_Initialize 0968                                      pclath 000FFA  
                                    tablat 000FF5                                      ttemp5 003E  
                                    ttemp6 0041                                      ttemp7 0045  
                                    status 000FD8                                      wtemp8 003E  
                           lcd_fill@height 000E                            ?_SPI_Initialize 0001  
          ??_IOCB4_DefaultInterruptHandler 0001                            __initialization 09F8  
                             __end_of_main 07CC                               __end_of_font FFEF  
                        __end_of_IOCB4_ISR 093E                ?_INTERRUPT_InterruptManager 0001  
                                   ??_main 0034                          ?_lcd_set_cursor_x 0006  
                        ?_lcd_set_cursor_y 0006                              lcd_send@value 0004  
                            __activetblptr 000003                         ??_lcd_set_cursor_x 0008  
                       ??_lcd_set_cursor_y 0008                             __CFG_RETEN$OFF 000000  
                           lcd_draw_char@i 0021                             lcd_draw_char@j 001F  
                           lcd_draw_char@k 0020                   __end_of_SPI_ExchangeByte 0982  
                           lcd_draw_char@x 000C                             lcd_draw_char@y 000E  
                                   _ADCON0 000FC2                                     _ADCON1 000FC1  
                                   _ADCON2 000FC0                                     _ADRESH 000FC4  
                                   _ADRESL 000FC3                                     _ANCON0 000F5D  
                                   _ANCON1 000F5C                                     _T1GCON 000FAA  
                          __CFG_BBSIZ$BB2K 000000                                     i2l1129 0A30  
                                   i2l1181 0912                                     i2l1261 09C8  
                                   i2l1183 0924                                     i2l1257 09B4  
                                   i2l1259 09C4                                     i2l1531 002E  
                                   i2l1527 0012                                     i2l1529 0020  
                           __CFG_WDTEN$OFF 000000                                     _OSCCON 000FD3  
                                   i2u5_40 0A3E                                     i2u5_41 0A3A  
                                   _SSPADD 000FC8                                     i2u8_40 0924  
                                   i2u8_41 0920                                     i2u9_48 092A  
                                   i2u9_49 093C                                     _SSPBUF 000FC9  
                          _global_bg_color 0034                             __CFG_XINST$OFF 000000  
                         ??_lcd_draw_pixel 0008                           __end_of_lcd_fill 077E  
                         __end_of_lcd_init 03C8                           __end_of_lcd_send 09B4  
                           __CFG_STVREN$ON 000000                                  ??_msDelay 0003  
                             __mediumconst F222                                     tblptrh 000FF7  
                                   tblptrl 000FF6                                     tblptru 000FF8  
IOCB4_SetInterruptHandler@InterruptHandler 0003                           ?_PIN_MANAGER_IOC 0001  
            __size_of_INTERRUPT_Initialize 0004                           ?_TMR1_Initialize 0001  
                        _SYSTEM_Initialize 0982                                 __accesstop 0060  
                 __size_of_lcd_draw_string 010A                    __end_of__initialization 0A02  
                       ?_SYSTEM_Initialize 0001                              ___rparam_used 000001  
                           __pcstackCOMRAM 0001                        ??_SYSTEM_Initialize 0005  
    __end_of_IOCB4_DefaultInterruptHandler 0A52     __size_of_IOCB4_DefaultInterruptHandler 0002  
            _IOCB4_DefaultInterruptHandler 0A50                                  ?_SPI_Open 0001  
              ??_IOCB4_SetInterruptHandler 0005                           ??_lcd_set_cursor 000C  
                   fp__IOCB4_InterruptCall 0000                  __end_of_SYSTEM_Initialize 099C  
                          __CFG_PLLCFG$OFF 000000                                 __pnvCOMRAM 0039  
                               ??_SPI_Open 0003                    __size_of_ADC_Initialize 0016  
                         __CFG_CANMX$PORTB 000000                                    _REFOCON 000F9A  
                                  _OSCCON2 000FD2                                    i2u20_40 09C4  
                                  i2u20_41 09C0                                    i2u33_40 0020  
                                  i2u33_41 001C                                    i2u34_40 002E  
                                  i2u34_41 002A                                    _OSCTUNE 000F9B  
             __size_of_IOCB4_InterruptCall 0012                                    _SSPCON1 000FC6  
                                  _SSPCON2 000FC5                                  ?_lcd_fill 000C  
                                ?_lcd_init 0001                                  ?_lcd_send 0004  
                                  _SSPSTAT 000FC7                           ??_SPI_Initialize 0003  
                _IOCB4_SetInterruptHandler 0A42                            __CFG_PWRTEN$OFF 000000  
                     _ADC_InterruptHandler 0036                                    __Hparam 0000  
                                  __Lparam 0000                          ??_lcd_draw_string 002C  
                                  __pcinit 09F8                                    __ramtop 0F00  
                                  __ptext0 077E                                    __ptext1 0042  
                                  __ptext2 08E4                                    __ptext3 06FC  
                                  __ptext4 0542                                    __ptext5 03C8  
                                  __ptext6 08A2                                    __ptext7 07CC  
                                  __ptext8 0814                                    __ptext9 09CC  
                                  _msDelay 08E4                                  _IOCB4_ISR 0912  
                                _T1CONbits 000FCD                      _OSCILLATOR_Initialize 0A1E  
                 ??_PIN_MANAGER_Initialize 0005                          __CFG_MSSPMSK$MSK7 000000  
                    __end_of_lcd_draw_char 0542                 __size_of_SYSTEM_Initialize 001A  
                               ??_lcd_fill 000E                          ?_SPI_ExchangeByte 0001  
                               ??_lcd_init 0012                                 ??_lcd_send 0005  
                     end_of_initialization 0A02                         ??_SPI_ExchangeByte 0003  
                __size_of_lcd_set_cursor_x 0048                  __size_of_lcd_set_cursor_y 0048  
                      lcd_draw_char@fIndex 0010                           lcd_fill@bg_color 000C  
                        lcd_draw_string@pS 0026                                  _PORTBbits 000F81  
                        _spi_configuration FFEF                                 ?_IOCB4_ISR 0001  
                         __CFG_FOSC$INTIO2 000000                                  _TRISCbits 000F94  
                               lcd_send@dc 0005               __end_of_INTERRUPT_Initialize 0A50  
                     SPI_ExchangeByte@data 0003                  __end_of_spi_configuration FFF3  
                           _ADC_Initialize 09E2                     ?_OSCILLATOR_Initialize 0001  
                        __size_of_SPI_Open 00B0                        start_initialization 09F8  
          __size_of_PIN_MANAGER_Initialize 0046                   __size_of_PIN_MANAGER_IOC 0018  
           SPI_Open@spiUniqueConfiguration 0004                   __size_of_TMR1_Initialize 002A  
                      _IOCB4_InterruptCall 0A30                     __end_of_ADC_Initialize 09F8  
                              ??_IOCB4_ISR 0001                    __size_of_lcd_draw_pixel 0016  
                              __pbssCOMRAM 0034                       ?_IOCB4_InterruptCall 0001  
                          _lcd_draw_string 0542                           _lcd_set_cursor_x 0814  
                         _lcd_set_cursor_y 07CC                          __size_of_lcd_fill 0082  
                        __size_of_lcd_init 0386                          __size_of_lcd_send 0018  
                   _PIN_MANAGER_Initialize 085C                                  __pintcode 0008  
                            __pmediumconst F222                            ?_ADC_Initialize 0001  
             ??_INTERRUPT_InterruptManager 0001                                   ?_msDelay 0001  
                    ??_IOCB4_InterruptCall 0001                       _INTERRUPT_Initialize 0A4C  
                  __size_of_lcd_set_cursor 0042                                   _IOCBbits 000F5A  
                                 _LATAbits 000F89                                   _LATEbits 000F8D  
                          lcd_set_cursor@x 0008                            lcd_set_cursor@y 000A  
      __size_of_INTERRUPT_InterruptManager 0036                                   _PIR1bits 000F9E  
                    lcd_draw_string@lIndex 0032                                   _RCONbits 000FD0  
                __size_of_SPI_ExchangeByte 001A                           lcd_draw_string@k 0030  
                         lcd_draw_string@x 0022                           lcd_draw_string@y 0024  
                        ??_PIN_MANAGER_IOC 0001                                   _SPI_Open 064C  
                        ??_TMR1_Initialize 0003                                 _ADCON0bits 000FC2  
                         __CFG_SOSCSEL$DIG 000000                    __end_of_lcd_draw_string 064C  
                                msDelay@ms 0004                                _INTCON2bits 000FF1  
                    ?_INTERRUPT_Initialize 0001                        lcd_draw_pixel@color 0006  
                                 __Hrparam 0000                                   __Lrparam 0000  
                       __CFG_BOREN$SBORDIS 000000                    __size_of_SPI_Initialize 0012  
                  ??_OSCILLATOR_Initialize 0003                     __size_of_lcd_draw_char 017A  
                   _IOCB4_InterruptHandler 003B                             _lcd_draw_pixel 09CC  
                         __size_of_msDelay 002E           fp__IOCB4_DefaultInterruptHandler 0000  
           ?_IOCB4_DefaultInterruptHandler 0001                                   __ptext10 099C  
                                 __ptext11 0968                                   __ptext20 064C  
                                 __ptext12 0982                                   __ptext13 093E  
                               _T1GCONbits 000FAA                                   __ptext22 09B4  
                                 __ptext14 0A0C                                   __ptext23 0912  
                                 __ptext15 085C                                   __ptext24 0A50  
                                 __ptext16 0A42                                   __ptext25 0A30  
                                 __ptext17 0A1E                                   __ptext26 0000  
                                 __ptext18 0A4C                                   __ptext19 09E2  
                                 _lcd_fill 06FC                                   _lcd_init 0042  
                                 _lcd_send 099C                              __size_of_main 004E  
                    lcd_draw_char@bg_color 0014                                   int$flags 003D  
                    lcd_draw_char@fg_color 0012         __end_of_INTERRUPT_InterruptManager 003E  
               _INTERRUPT_InterruptManager 0008                     __end_of_lcd_draw_pixel 09E2  
                 __end_of_lcd_set_cursor_x 085C                   __end_of_lcd_set_cursor_y 0814  
                      __CFG_INTOSCSEL$HIGH 000000                                   msDelay@k 0005  
                               _INTCONbits 000FF2                           ?_lcd_draw_string 0022  
                   ??_INTERRUPT_Initialize 0003                              _lcd_draw_char 03C8  
                                 intlevel2 0000                             _lcd_set_cursor 08A2  
                        lcd_set_cursor_x@x 0006                          lcd_set_cursor_y@y 0006  
                  ?_PIN_MANAGER_Initialize 0001                           ??_ADC_Initialize 0003  
                         _SPI_ExchangeByte 0968                    lcd_draw_string@bg_color 002A  
                       __CFG_WDTPS$1048576 000000                    lcd_draw_string@fg_color 0028  
                          ?_lcd_draw_pixel 0006                                _SSPCON1bits 000FC6  
                   __end_of_lcd_set_cursor 08E4                             ?_lcd_draw_char 000C  
           __end_of_PIN_MANAGER_Initialize 08A2                        __CFG_BORPWR$ZPBORMV 000000  
                          _PIN_MANAGER_IOC 09B4                            _TMR1_Initialize 093E  
